Archive member included because of file (symbol)

coreutils/lib.a(basename.o)   applets/built-in.o (basename_main)
coreutils/lib.a(cat.o)        applets/built-in.o (cat_main)
coreutils/lib.a(chmod.o)      applets/built-in.o (chmod_main)
coreutils/lib.a(cp.o)         applets/built-in.o (cp_main)
coreutils/lib.a(date.o)       applets/built-in.o (date_main)
coreutils/lib.a(df.o)         applets/built-in.o (df_main)
coreutils/lib.a(echo.o)       applets/built-in.o (echo_main)
coreutils/lib.a(expr.o)       applets/built-in.o (expr_main)
coreutils/lib.a(id.o)         applets/built-in.o (id_main)
coreutils/lib.a(ln.o)         applets/built-in.o (ln_main)
coreutils/lib.a(ls.o)         applets/built-in.o (ls_main)
coreutils/lib.a(md5_sha1_sum.o)
                              applets/built-in.o (md5_sha1_sum_main)
coreutils/lib.a(mkdir.o)      applets/built-in.o (mkdir_main)
coreutils/lib.a(mknod.o)      applets/built-in.o (mknod_main)
coreutils/lib.a(mv.o)         applets/built-in.o (mv_main)
coreutils/lib.a(nice.o)       applets/built-in.o (nice_main)
coreutils/lib.a(printf.o)     applets/built-in.o (printf_main)
coreutils/lib.a(pwd.o)        applets/built-in.o (pwd_main)
coreutils/lib.a(rm.o)         applets/built-in.o (rm_main)
coreutils/lib.a(sleep.o)      applets/built-in.o (sleep_main)
coreutils/lib.a(sort.o)       applets/built-in.o (sort_main)
coreutils/lib.a(stty.o)       applets/built-in.o (stty_main)
coreutils/lib.a(sync.o)       applets/built-in.o (sync_main)
coreutils/lib.a(tail.o)       applets/built-in.o (tail_main)
coreutils/lib.a(test.o)       applets/built-in.o (test_main)
coreutils/lib.a(touch.o)      applets/built-in.o (touch_main)
coreutils/lib.a(true.o)       applets/built-in.o (true_main)
coreutils/lib.a(tty.o)        applets/built-in.o (tty_main)
coreutils/lib.a(uname.o)      applets/built-in.o (uname_main)
coreutils/lib.a(wc.o)         applets/built-in.o (wc_main)
coreutils/libcoreutils/lib.a(cp_mv_stat.o)
                              coreutils/lib.a(cp.o) (cp_mv_stat2)
coreutils/libcoreutils/lib.a(getopt_mk_fifo_nod.o)
                              coreutils/lib.a(mknod.o) (getopt_mk_fifo_nod)
debianutils/lib.a(which.o)    applets/built-in.o (which_main)
editors/lib.a(cmp.o)          applets/built-in.o (cmp_main)
editors/lib.a(vi.o)           applets/built-in.o (vi_main)
findutils/lib.a(find.o)       applets/built-in.o (find_main)
findutils/lib.a(grep.o)       applets/built-in.o (grep_main)
init/lib.a(halt.o)            applets/built-in.o (halt_main)
init/lib.a(init.o)            applets/built-in.o (init_main)
libbb/lib.a(ask_confirmation.o)
                              coreutils/lib.a(mv.o) (bb_ask_confirmation)
libbb/lib.a(bb_basename.o)    applets/built-in.o (bb_basename)
libbb/lib.a(bb_pwd.o)         coreutils/lib.a(id.o) (xuname2uid)
libbb/lib.a(bb_strtonum.o)    coreutils/lib.a(printf.o) (bb_strtol)
libbb/lib.a(compare_string_array.o)
                              coreutils/lib.a(expr.o) (index_in_strings)
libbb/lib.a(concat_path_file.o)
                              coreutils/lib.a(cp.o) (concat_path_file)
libbb/lib.a(copy_file.o)      coreutils/lib.a(cp.o) (copy_file)
libbb/lib.a(copyfd.o)         coreutils/lib.a(cat.o) (bb_copyfd_eof)
libbb/lib.a(default_error_retval.o)
                              applets/built-in.o (xfunc_error_retval)
libbb/lib.a(device_open.o)    init/lib.a(init.o) (device_open)
libbb/lib.a(error_msg.o)      coreutils/lib.a(df.o) (bb_error_msg)
libbb/lib.a(error_msg_and_die.o)
                              applets/built-in.o (xfunc_die)
libbb/lib.a(execable.o)       debianutils/lib.a(which.o) (execable_file)
libbb/lib.a(fclose_nonstdin.o)
                              coreutils/lib.a(wc.o) (fclose_if_not_stdin)
libbb/lib.a(fflush_stdout_and_exit.o)
                              coreutils/lib.a(df.o) (fflush_stdout_and_exit)
libbb/lib.a(find_mount_point.o)
                              coreutils/lib.a(df.o) (find_mount_point)
libbb/lib.a(find_root_device.o)
                              coreutils/lib.a(df.o) (find_block_device)
libbb/lib.a(full_write.o)     init/lib.a(init.o) (full_write)
libbb/lib.a(get_last_path_component.o)
                              coreutils/lib.a(basename.o) (bb_get_last_path_component)
libbb/lib.a(get_line_from_file.o)
                              coreutils/lib.a(sort.o) (xmalloc_getline)
libbb/lib.a(getopt32.o)       coreutils/lib.a(cat.o) (getopt32)
libbb/lib.a(inode_hash.o)     libbb/lib.a(copy_file.o) (is_in_ino_dev_hashtable)
libbb/lib.a(isdirectory.o)    coreutils/lib.a(ln.o) (is_directory)
libbb/lib.a(last_char_is.o)   libbb/lib.a(concat_path_file.o) (last_char_is)
libbb/lib.a(llist.o)          libbb/lib.a(getopt32.o) (llist_add_to_end)
libbb/lib.a(make_directory.o)
                              coreutils/lib.a(mkdir.o) (bb_make_directory)
libbb/lib.a(makedev.o)        coreutils/lib.a(mknod.o) (bb_makedev)
libbb/lib.a(md5.o)            coreutils/lib.a(md5_sha1_sum.o) (md5_begin)
libbb/lib.a(messages.o)       applets/built-in.o (bb_banner)
libbb/lib.a(mode_string.o)    coreutils/lib.a(ls.o) (bb_mode_string)
libbb/lib.a(mtab_file.o)      coreutils/lib.a(df.o) (bb_path_mtab_file)
libbb/lib.a(parse_mode.o)     coreutils/lib.a(chmod.o) (bb_parse_mode)
libbb/lib.a(perror_msg.o)     coreutils/lib.a(chmod.o) (bb_perror_msg)
libbb/lib.a(perror_msg_and_die.o)
                              coreutils/lib.a(df.o) (bb_perror_msg_and_die)
libbb/lib.a(perror_nomsg_and_die.o)
                              coreutils/lib.a(sleep.o) (bb_perror_nomsg_and_die)
libbb/lib.a(process_escape_sequence.o)
                              coreutils/lib.a(echo.o) (bb_process_escape_sequence)
libbb/lib.a(read.o)           coreutils/lib.a(md5_sha1_sum.o) (safe_read)
libbb/lib.a(recursive_action.o)
                              coreutils/lib.a(chmod.o) (recursive_action)
libbb/lib.a(remove_file.o)    coreutils/lib.a(mv.o) (remove_file)
libbb/lib.a(safe_strncpy.o)   init/lib.a(init.o) (safe_strncpy)
libbb/lib.a(safe_write.o)     libbb/lib.a(full_write.o) (safe_write)
libbb/lib.a(skip_whitespace.o)
                              coreutils/lib.a(test.o) (skip_whitespace)
libbb/lib.a(speed_table.o)    coreutils/lib.a(stty.o) (tty_baud_to_value)
libbb/lib.a(verror_msg.o)     libbb/lib.a(error_msg.o) (bb_verror_msg)
libbb/lib.a(vfork_daemon_rexec.o)
                              init/lib.a(init.o) (bb_sanitize_stdio)
libbb/lib.a(warn_ignoring_args.o)
                              coreutils/lib.a(sync.o) (bb_warn_ignoring_args)
libbb/lib.a(wfopen_input.o)   coreutils/lib.a(tail.o) (fopen_or_warn_stdin)
libbb/lib.a(xatonum.o)        coreutils/lib.a(nice.o) (xatol_range)
libbb/lib.a(xfuncs.o)         coreutils/lib.a(md5_sha1_sum.o) (bin2hex)
libbb/lib.a(xgetcwd.o)        coreutils/lib.a(pwd.o) (xrealloc_getcwd_or_warn)
libbb/lib.a(xreadlink.o)      coreutils/lib.a(ls.o) (xmalloc_readlink_or_warn)
libbb/lib.a(xregcomp.o)       coreutils/lib.a(expr.o) (xregcomp)
libbb/lib.a(concat_subpath_file.o)
                              libbb/lib.a(copy_file.o) (concat_subpath_file)
libbb/lib.a(wfopen.o)         libbb/lib.a(wfopen_input.o) (fopen_or_warn)
miscutils/lib.a(time.o)       applets/built-in.o (time_main)
miscutils/lib.a(watchdog.o)   applets/built-in.o (watchdog_main)
modutils/lib.a(insmod.o)      applets/built-in.o (insmod_main)
modutils/lib.a(lsmod.o)       applets/built-in.o (lsmod_main)
modutils/lib.a(modprobe.o)    applets/built-in.o (modprobe_main)
modutils/lib.a(rmmod.o)       applets/built-in.o (rmmod_main)
networking/lib.a(arp.o)       applets/built-in.o (arp_main)
networking/lib.a(ftpgetput.o)
                              applets/built-in.o (ftpgetput_main)
networking/lib.a(ifconfig.o)  applets/built-in.o (ifconfig_main)
networking/lib.a(ifupdown.o)  applets/built-in.o (ifupdown_main)
networking/lib.a(interface.o)
                              networking/lib.a(arp.o) (get_hwntype)
networking/lib.a(ip.o)        applets/built-in.o (ip_main)
networking/lib.a(netstat.o)   applets/built-in.o (netstat_main)
networking/lib.a(ping.o)      applets/built-in.o (ping_main)
networking/lib.a(route.o)     networking/lib.a(netstat.o) (bb_displayroutes)
networking/lib.a(tftp.o)      applets/built-in.o (tftp_main)
networking/lib.a(vconfig.o)   applets/built-in.o (vconfig_main)
networking/libiproute/lib.a(ip_parse_common_args.o)
                              networking/lib.a(ip.o) (ip_parse_common_args)
networking/libiproute/lib.a(iplink.o)
                              networking/lib.a(ip.o) (do_iplink)
networking/libiproute/lib.a(ll_addr.o)
                              networking/libiproute/lib.a(iplink.o) (ll_addr_a2n)
networking/libiproute/lib.a(utils.o)
                              networking/libiproute/lib.a(iplink.o) (duparg2)
networking/libiproute/lib.a(ipaddress.o)
                              networking/libiproute/lib.a(iplink.o) (ipaddr_list_or_flush)
networking/libiproute/lib.a(libnetlink.o)
                              networking/libiproute/lib.a(ipaddress.o) (parse_rtattr)
networking/libiproute/lib.a(ll_map.o)
                              networking/libiproute/lib.a(ipaddress.o) (ll_index_to_flags)
networking/libiproute/lib.a(ll_types.o)
                              networking/libiproute/lib.a(ipaddress.o) (ll_type_n2a)
networking/libiproute/lib.a(rt_names.o)
                              networking/libiproute/lib.a(ipaddress.o) (rtnl_rtscope_a2n)
procps/lib.a(kill.o)          applets/built-in.o (kill_main)
procps/lib.a(pidof.o)         applets/built-in.o (pidof_main)
procps/lib.a(ps.o)            applets/built-in.o (ps_main)
procps/lib.a(sysctl.o)        applets/built-in.o (sysctl_main)
procps/lib.a(top.o)           applets/built-in.o (top_main)
procps/lib.a(uptime.o)        applets/built-in.o (uptime_main)
shell/lib.a(ash.o)            applets/built-in.o (ash_main)
sysklogd/lib.a(logger.o)      applets/built-in.o (logger_main)
sysklogd/lib.a(syslogd.o)     sysklogd/lib.a(logger.o) (prioritynames)
util-linux/lib.a(dmesg.o)     applets/built-in.o (dmesg_main)
util-linux/lib.a(hexdump.o)   applets/built-in.o (hexdump_main)
util-linux/lib.a(ipcs.o)      applets/built-in.o (ipcs_main)
util-linux/lib.a(mount.o)     applets/built-in.o (mount_main)
util-linux/lib.a(umount.o)    applets/built-in.o (umount_main)
libbb/lib.a(create_icmp6_socket.o)
                              networking/lib.a(ping.o) (create_icmp6_socket)
libbb/lib.a(create_icmp_socket.o)
                              networking/lib.a(ping.o) (create_icmp_socket)
libbb/lib.a(dump.o)           util-linux/lib.a(hexdump.o) (bb_dump_add)
libbb/lib.a(find_pid_by_name.o)
                              procps/lib.a(pidof.o) (pidlist_reverse)
libbb/lib.a(herror_msg_and_die.o)
                              networking/lib.a(arp.o) (bb_herror_msg_and_die)
libbb/lib.a(inet_common.o)    networking/lib.a(interface.o) (INET6_rresolve)
libbb/lib.a(lineedit.o)       shell/lib.a(ash.o) (new_line_input_t)
libbb/lib.a(loop.o)           util-linux/lib.a(mount.o) (del_loop)
libbb/lib.a(match_fstype.o)   util-linux/lib.a(mount.o) (match_fstype)
libbb/lib.a(procps.o)         procps/lib.a(ps.o) (read_cmdline)
libbb/lib.a(simplify_path.o)  util-linux/lib.a(mount.o) (bb_simplify_path)
libbb/lib.a(time.o)           miscutils/lib.a(time.o) (monotonic_us)
libbb/lib.a(trim.o)           procps/lib.a(sysctl.o) (trim)
libbb/lib.a(u_signal_names.o)
                              procps/lib.a(kill.o) (get_signame)
libbb/lib.a(xconnect.o)       networking/lib.a(tftp.o) (get_nport)
/opt/toolchains/buildroot-be-gcc434-2013-0107/usr/bin/../lib/gcc/mips-unknown-linux-uclibc/4.3.4/libgcc.a(_lshrdi3.o)
                              libbb/lib.a(md5.o) (__lshrdi3)
/opt/toolchains/buildroot-be-gcc434-2013-0107/usr/bin/../lib/gcc/mips-unknown-linux-uclibc/4.3.4/libgcc.a(_udivdi3.o)
                              coreutils/lib.a(df.o) (__udivdi3)
/opt/toolchains/buildroot-be-gcc434-2013-0107/usr/bin/../lib/gcc/mips-unknown-linux-uclibc/4.3.4/libgcc.a(_sf_to_df.o)
                              libbb/lib.a(dump.o) (__extendsfdf2)
/opt/toolchains/buildroot-be-gcc434-2013-0107/usr/bin/../lib/gcc/mips-unknown-linux-uclibc/4.3.4/libgcc.a(_make_df.o)
                              /opt/toolchains/buildroot-be-gcc434-2013-0107/usr/bin/../lib/gcc/mips-unknown-linux-uclibc/4.3.4/libgcc.a(_sf_to_df.o) (__make_dp)
/opt/toolchains/buildroot-be-gcc434-2013-0107/usr/bin/../lib/gcc/mips-unknown-linux-uclibc/4.3.4/libgcc.a(_clz.o)
                              /opt/toolchains/buildroot-be-gcc434-2013-0107/usr/bin/../lib/gcc/mips-unknown-linux-uclibc/4.3.4/libgcc.a(_udivdi3.o) (__clz_tab)
/opt/toolchains/buildroot-be-gcc434-2013-0107/usr/bin/../lib/gcc/mips-unknown-linux-uclibc/4.3.4/libgcc.a(_unpack_sf.o)
                              /opt/toolchains/buildroot-be-gcc434-2013-0107/usr/bin/../lib/gcc/mips-unknown-linux-uclibc/4.3.4/libgcc.a(_sf_to_df.o) (__unpack_f)
/opt/toolchains/buildroot-be-gcc434-2013-0107/usr/bin/../lib/gcc/mips-unknown-linux-uclibc/4.3.4/libgcc.a(_pack_df.o)
                              /opt/toolchains/buildroot-be-gcc434-2013-0107/usr/bin/../lib/gcc/mips-unknown-linux-uclibc/4.3.4/libgcc.a(_make_df.o) (__pack_d)
/opt/toolchains/buildroot-be-gcc434-2013-0107/usr/bin/../lib/gcc/mips-unknown-linux-uclibc/4.3.4/libgcc.a(_ashldi3.o)
                              /opt/toolchains/buildroot-be-gcc434-2013-0107/usr/bin/../lib/gcc/mips-unknown-linux-uclibc/4.3.4/libgcc.a(_pack_df.o) (__ashldi3)
/opt/toolchains/buildroot-be-gcc434-2013-0107/usr/bin/../lib/gcc/mips-unknown-linux-uclibc/4.3.4/libgcc.a(_ucmpdi2.o)
                              /opt/toolchains/buildroot-be-gcc434-2013-0107/usr/bin/../lib/gcc/mips-unknown-linux-uclibc/4.3.4/libgcc.a(_pack_df.o) (__ucmpdi2)

Allocating common symbols
Common symbol       size              file

bb_dump_skip        0x4               libbb/lib.a(dump.o)
bb_common_bufsiz1   0x1001            libbb/lib.a(messages.o)
const_int_0         0x4               libbb/lib.a(messages.o)
option_mask32       0x4               libbb/lib.a(getopt32.o)
applet_name         0x4               applets/built-in.o
die_sleep           0x4               libbb/lib.a(error_msg_and_die.o)
opt_complementary   0x4               libbb/lib.a(getopt32.o)
bb_dump_blocksize   0x4               libbb/lib.a(dump.o)
current_applet      0x4               applets/built-in.o
bb_dump_fshead      0x4               libbb/lib.a(dump.o)
applet_long_options
                    0x4               libbb/lib.a(getopt32.o)
interface_opt_a     0x1               networking/lib.a(interface.o)
_SL_                0x1               networking/libiproute/lib.a(ip_parse_common_args.o)
oneline             0x1               networking/libiproute/lib.a(ip_parse_common_args.o)

Discarded input sections

 .data          0x0000000000000000       0x10 /opt/buildroot-be-gcc434/usr/lib/crt1.o
 .bss           0x0000000000000000        0x0 /opt/buildroot-be-gcc434/usr/lib/crt1.o
 .reginfo       0x0000000000000000       0x18 /opt/buildroot-be-gcc434/usr/lib/crt1.o
 .pdr           0x0000000000000000       0x20 /opt/buildroot-be-gcc434/usr/lib/crt1.o
 .note.GNU-stack
                0x0000000000000000        0x0 /opt/buildroot-be-gcc434/usr/lib/crt1.o
 .text          0x0000000000000000        0x0 /opt/buildroot-be-gcc434/usr/lib/crti.o
 .data          0x0000000000000000        0x0 /opt/buildroot-be-gcc434/usr/lib/crti.o
 .bss           0x0000000000000000        0x0 /opt/buildroot-be-gcc434/usr/lib/crti.o
 .reginfo       0x0000000000000000       0x18 /opt/buildroot-be-gcc434/usr/lib/crti.o
 .pdr           0x0000000000000000       0x40 /opt/buildroot-be-gcc434/usr/lib/crti.o
 .note.GNU-stack
                0x0000000000000000        0x0 /opt/buildroot-be-gcc434/usr/lib/crti.o
 .data          0x0000000000000000        0x0 /opt/toolchains/buildroot-be-gcc434-2013-0107/usr/bin/../lib/gcc/mips-unknown-linux-uclibc/4.3.4/crtbegin.o
 .reginfo       0x0000000000000000       0x18 /opt/toolchains/buildroot-be-gcc434-2013-0107/usr/bin/../lib/gcc/mips-unknown-linux-uclibc/4.3.4/crtbegin.o
 .sdata         0x0000000000000000        0x4 /opt/toolchains/buildroot-be-gcc434-2013-0107/usr/bin/../lib/gcc/mips-unknown-linux-uclibc/4.3.4/crtbegin.o
 .reginfo       0x0000000000000000       0x18 applets/built-in.o
 .text          0x0000000000000000        0x0 applets/built-in.o
 .bss           0x0000000000000000        0x0 applets/built-in.o
 .pdr           0x0000000000000000       0xc0 applets/built-in.o
 .text          0x0000000000000000        0x0 coreutils/lib.a(basename.o)
 .data          0x0000000000000000        0x0 coreutils/lib.a(basename.o)
 .bss           0x0000000000000000        0x0 coreutils/lib.a(basename.o)
 .reginfo       0x0000000000000000       0x18 coreutils/lib.a(basename.o)
 .pdr           0x0000000000000000       0x20 coreutils/lib.a(basename.o)
 .text          0x0000000000000000        0x0 coreutils/lib.a(cat.o)
 .data          0x0000000000000000        0x0 coreutils/lib.a(cat.o)
 .bss           0x0000000000000000        0x0 coreutils/lib.a(cat.o)
 .reginfo       0x0000000000000000       0x18 coreutils/lib.a(cat.o)
 .pdr           0x0000000000000000       0x40 coreutils/lib.a(cat.o)
 .text          0x0000000000000000        0x0 coreutils/lib.a(chmod.o)
 .data          0x0000000000000000        0x0 coreutils/lib.a(chmod.o)
 .bss           0x0000000000000000        0x0 coreutils/lib.a(chmod.o)
 .reginfo       0x0000000000000000       0x18 coreutils/lib.a(chmod.o)
 .pdr           0x0000000000000000       0x40 coreutils/lib.a(chmod.o)
 .text          0x0000000000000000        0x0 coreutils/lib.a(cp.o)
 .data          0x0000000000000000        0x0 coreutils/lib.a(cp.o)
 .bss           0x0000000000000000        0x0 coreutils/lib.a(cp.o)
 .reginfo       0x0000000000000000       0x18 coreutils/lib.a(cp.o)
 .pdr           0x0000000000000000       0x20 coreutils/lib.a(cp.o)
 .text          0x0000000000000000        0x0 coreutils/lib.a(date.o)
 .data          0x0000000000000000        0x0 coreutils/lib.a(date.o)
 .bss           0x0000000000000000        0x0 coreutils/lib.a(date.o)
 .reginfo       0x0000000000000000       0x18 coreutils/lib.a(date.o)
 .pdr           0x0000000000000000       0x40 coreutils/lib.a(date.o)
 .text          0x0000000000000000        0x0 coreutils/lib.a(df.o)
 .data          0x0000000000000000        0x0 coreutils/lib.a(df.o)
 .bss           0x0000000000000000        0x0 coreutils/lib.a(df.o)
 .reginfo       0x0000000000000000       0x18 coreutils/lib.a(df.o)
 .pdr           0x0000000000000000       0x40 coreutils/lib.a(df.o)
 .text          0x0000000000000000        0x0 coreutils/lib.a(echo.o)
 .data          0x0000000000000000        0x0 coreutils/lib.a(echo.o)
 .bss           0x0000000000000000        0x0 coreutils/lib.a(echo.o)
 .reginfo       0x0000000000000000       0x18 coreutils/lib.a(echo.o)
 .pdr           0x0000000000000000       0x40 coreutils/lib.a(echo.o)
 .text          0x0000000000000000        0x0 coreutils/lib.a(expr.o)
 .data          0x0000000000000000        0x0 coreutils/lib.a(expr.o)
 .bss           0x0000000000000000        0x0 coreutils/lib.a(expr.o)
 .reginfo       0x0000000000000000       0x18 coreutils/lib.a(expr.o)
 .pdr           0x0000000000000000      0x220 coreutils/lib.a(expr.o)
 .text          0x0000000000000000        0x0 coreutils/lib.a(id.o)
 .data          0x0000000000000000        0x0 coreutils/lib.a(id.o)
 .bss           0x0000000000000000        0x0 coreutils/lib.a(id.o)
 .reginfo       0x0000000000000000       0x18 coreutils/lib.a(id.o)
 .pdr           0x0000000000000000       0x40 coreutils/lib.a(id.o)
 .text          0x0000000000000000        0x0 coreutils/lib.a(ln.o)
 .data          0x0000000000000000        0x0 coreutils/lib.a(ln.o)
 .bss           0x0000000000000000        0x0 coreutils/lib.a(ln.o)
 .reginfo       0x0000000000000000       0x18 coreutils/lib.a(ln.o)
 .pdr           0x0000000000000000       0x20 coreutils/lib.a(ln.o)
 .text          0x0000000000000000        0x0 coreutils/lib.a(ls.o)
 .data          0x0000000000000000        0x0 coreutils/lib.a(ls.o)
 .bss           0x0000000000000000        0x0 coreutils/lib.a(ls.o)
 .reginfo       0x0000000000000000       0x18 coreutils/lib.a(ls.o)
 .pdr           0x0000000000000000      0x100 coreutils/lib.a(ls.o)
 .text          0x0000000000000000        0x0 coreutils/lib.a(md5_sha1_sum.o)
 .data          0x0000000000000000        0x0 coreutils/lib.a(md5_sha1_sum.o)
 .bss           0x0000000000000000        0x0 coreutils/lib.a(md5_sha1_sum.o)
 .reginfo       0x0000000000000000       0x18 coreutils/lib.a(md5_sha1_sum.o)
 .pdr           0x0000000000000000       0x20 coreutils/lib.a(md5_sha1_sum.o)
 .text          0x0000000000000000        0x0 coreutils/lib.a(mkdir.o)
 .data          0x0000000000000000        0x0 coreutils/lib.a(mkdir.o)
 .bss           0x0000000000000000        0x0 coreutils/lib.a(mkdir.o)
 .reginfo       0x0000000000000000       0x18 coreutils/lib.a(mkdir.o)
 .pdr           0x0000000000000000       0x20 coreutils/lib.a(mkdir.o)
 .text          0x0000000000000000        0x0 coreutils/lib.a(mknod.o)
 .data          0x0000000000000000        0x0 coreutils/lib.a(mknod.o)
 .bss           0x0000000000000000        0x0 coreutils/lib.a(mknod.o)
 .reginfo       0x0000000000000000       0x18 coreutils/lib.a(mknod.o)
 .pdr           0x0000000000000000       0x20 coreutils/lib.a(mknod.o)
 .text          0x0000000000000000        0x0 coreutils/lib.a(mv.o)
 .data          0x0000000000000000        0x0 coreutils/lib.a(mv.o)
 .bss           0x0000000000000000        0x0 coreutils/lib.a(mv.o)
 .reginfo       0x0000000000000000       0x18 coreutils/lib.a(mv.o)
 .pdr           0x0000000000000000       0x20 coreutils/lib.a(mv.o)
 .text          0x0000000000000000        0x0 coreutils/lib.a(nice.o)
 .data          0x0000000000000000        0x0 coreutils/lib.a(nice.o)
 .bss           0x0000000000000000        0x0 coreutils/lib.a(nice.o)
 .reginfo       0x0000000000000000       0x18 coreutils/lib.a(nice.o)
 .pdr           0x0000000000000000       0x20 coreutils/lib.a(nice.o)
 .text          0x0000000000000000        0x0 coreutils/lib.a(printf.o)
 .data          0x0000000000000000        0x0 coreutils/lib.a(printf.o)
 .bss           0x0000000000000000        0x0 coreutils/lib.a(printf.o)
 .reginfo       0x0000000000000000       0x18 coreutils/lib.a(printf.o)
 .pdr           0x0000000000000000      0x120 coreutils/lib.a(printf.o)
 .text          0x0000000000000000        0x0 coreutils/lib.a(pwd.o)
 .data          0x0000000000000000        0x0 coreutils/lib.a(pwd.o)
 .bss           0x0000000000000000        0x0 coreutils/lib.a(pwd.o)
 .reginfo       0x0000000000000000       0x18 coreutils/lib.a(pwd.o)
 .pdr           0x0000000000000000       0x20 coreutils/lib.a(pwd.o)
 .text          0x0000000000000000        0x0 coreutils/lib.a(rm.o)
 .data          0x0000000000000000        0x0 coreutils/lib.a(rm.o)
 .bss           0x0000000000000000        0x0 coreutils/lib.a(rm.o)
 .reginfo       0x0000000000000000       0x18 coreutils/lib.a(rm.o)
 .pdr           0x0000000000000000       0x20 coreutils/lib.a(rm.o)
 .text          0x0000000000000000        0x0 coreutils/lib.a(sleep.o)
 .data          0x0000000000000000        0x0 coreutils/lib.a(sleep.o)
 .bss           0x0000000000000000        0x0 coreutils/lib.a(sleep.o)
 .reginfo       0x0000000000000000       0x18 coreutils/lib.a(sleep.o)
 .pdr           0x0000000000000000       0x20 coreutils/lib.a(sleep.o)
 .text          0x0000000000000000        0x0 coreutils/lib.a(sort.o)
 .data          0x0000000000000000        0x0 coreutils/lib.a(sort.o)
 .bss           0x0000000000000000        0x0 coreutils/lib.a(sort.o)
 .reginfo       0x0000000000000000       0x18 coreutils/lib.a(sort.o)
 .pdr           0x0000000000000000       0x40 coreutils/lib.a(sort.o)
 .text          0x0000000000000000        0x0 coreutils/lib.a(stty.o)
 .data          0x0000000000000000        0x0 coreutils/lib.a(stty.o)
 .bss           0x0000000000000000        0x0 coreutils/lib.a(stty.o)
 .reginfo       0x0000000000000000       0x18 coreutils/lib.a(stty.o)
 .pdr           0x0000000000000000      0x220 coreutils/lib.a(stty.o)
 .text          0x0000000000000000        0x0 coreutils/lib.a(sync.o)
 .data          0x0000000000000000        0x0 coreutils/lib.a(sync.o)
 .bss           0x0000000000000000        0x0 coreutils/lib.a(sync.o)
 .reginfo       0x0000000000000000       0x18 coreutils/lib.a(sync.o)
 .pdr           0x0000000000000000       0x20 coreutils/lib.a(sync.o)
 .text          0x0000000000000000        0x0 coreutils/lib.a(tail.o)
 .data          0x0000000000000000        0x0 coreutils/lib.a(tail.o)
 .bss           0x0000000000000000        0x0 coreutils/lib.a(tail.o)
 .reginfo       0x0000000000000000       0x18 coreutils/lib.a(tail.o)
 .pdr           0x0000000000000000       0x80 coreutils/lib.a(tail.o)
 .text          0x0000000000000000        0x0 coreutils/lib.a(test.o)
 .data          0x0000000000000000        0x0 coreutils/lib.a(test.o)
 .bss           0x0000000000000000        0x0 coreutils/lib.a(test.o)
 .reginfo       0x0000000000000000       0x18 coreutils/lib.a(test.o)
 .pdr           0x0000000000000000      0x120 coreutils/lib.a(test.o)
 .text          0x0000000000000000        0x0 coreutils/lib.a(touch.o)
 .data          0x0000000000000000        0x0 coreutils/lib.a(touch.o)
 .bss           0x0000000000000000        0x0 coreutils/lib.a(touch.o)
 .reginfo       0x0000000000000000       0x18 coreutils/lib.a(touch.o)
 .pdr           0x0000000000000000       0x20 coreutils/lib.a(touch.o)
 .text          0x0000000000000000        0x0 coreutils/lib.a(true.o)
 .data          0x0000000000000000        0x0 coreutils/lib.a(true.o)
 .bss           0x0000000000000000        0x0 coreutils/lib.a(true.o)
 .reginfo       0x0000000000000000       0x18 coreutils/lib.a(true.o)
 .pdr           0x0000000000000000       0x20 coreutils/lib.a(true.o)
 .text          0x0000000000000000        0x0 coreutils/lib.a(tty.o)
 .data          0x0000000000000000        0x0 coreutils/lib.a(tty.o)
 .bss           0x0000000000000000        0x0 coreutils/lib.a(tty.o)
 .reginfo       0x0000000000000000       0x18 coreutils/lib.a(tty.o)
 .pdr           0x0000000000000000       0x20 coreutils/lib.a(tty.o)
 .text          0x0000000000000000        0x0 coreutils/lib.a(uname.o)
 .data          0x0000000000000000        0x0 coreutils/lib.a(uname.o)
 .bss           0x0000000000000000        0x0 coreutils/lib.a(uname.o)
 .reginfo       0x0000000000000000       0x18 coreutils/lib.a(uname.o)
 .pdr           0x0000000000000000       0x20 coreutils/lib.a(uname.o)
 .text          0x0000000000000000        0x0 coreutils/lib.a(wc.o)
 .data          0x0000000000000000        0x0 coreutils/lib.a(wc.o)
 .bss           0x0000000000000000        0x0 coreutils/lib.a(wc.o)
 .reginfo       0x0000000000000000       0x18 coreutils/lib.a(wc.o)
 .pdr           0x0000000000000000       0x20 coreutils/lib.a(wc.o)
 .text          0x0000000000000000        0x0 coreutils/libcoreutils/lib.a(cp_mv_stat.o)
 .data          0x0000000000000000        0x0 coreutils/libcoreutils/lib.a(cp_mv_stat.o)
 .bss           0x0000000000000000        0x0 coreutils/libcoreutils/lib.a(cp_mv_stat.o)
 .reginfo       0x0000000000000000       0x18 coreutils/libcoreutils/lib.a(cp_mv_stat.o)
 .pdr           0x0000000000000000       0x40 coreutils/libcoreutils/lib.a(cp_mv_stat.o)
 .text          0x0000000000000000        0x0 coreutils/libcoreutils/lib.a(getopt_mk_fifo_nod.o)
 .data          0x0000000000000000        0x0 coreutils/libcoreutils/lib.a(getopt_mk_fifo_nod.o)
 .bss           0x0000000000000000        0x0 coreutils/libcoreutils/lib.a(getopt_mk_fifo_nod.o)
 .reginfo       0x0000000000000000       0x18 coreutils/libcoreutils/lib.a(getopt_mk_fifo_nod.o)
 .pdr           0x0000000000000000       0x20 coreutils/libcoreutils/lib.a(getopt_mk_fifo_nod.o)
 .text          0x0000000000000000        0x0 debianutils/lib.a(which.o)
 .data          0x0000000000000000        0x0 debianutils/lib.a(which.o)
 .bss           0x0000000000000000        0x0 debianutils/lib.a(which.o)
 .reginfo       0x0000000000000000       0x18 debianutils/lib.a(which.o)
 .pdr           0x0000000000000000       0x20 debianutils/lib.a(which.o)
 .text          0x0000000000000000        0x0 editors/lib.a(cmp.o)
 .data          0x0000000000000000        0x0 editors/lib.a(cmp.o)
 .bss           0x0000000000000000        0x0 editors/lib.a(cmp.o)
 .reginfo       0x0000000000000000       0x18 editors/lib.a(cmp.o)
 .pdr           0x0000000000000000       0x40 editors/lib.a(cmp.o)
 .text          0x0000000000000000        0x0 editors/lib.a(vi.o)
 .data          0x0000000000000000        0x0 editors/lib.a(vi.o)
 .bss           0x0000000000000000        0x0 editors/lib.a(vi.o)
 .reginfo       0x0000000000000000       0x18 editors/lib.a(vi.o)
 .pdr           0x0000000000000000      0x5a0 editors/lib.a(vi.o)
 .text          0x0000000000000000        0x0 findutils/lib.a(find.o)
 .data          0x0000000000000000        0x0 findutils/lib.a(find.o)
 .bss           0x0000000000000000        0x0 findutils/lib.a(find.o)
 .reginfo       0x0000000000000000       0x18 findutils/lib.a(find.o)
 .pdr           0x0000000000000000       0xa0 findutils/lib.a(find.o)
 .text          0x0000000000000000        0x0 findutils/lib.a(grep.o)
 .data          0x0000000000000000        0x0 findutils/lib.a(grep.o)
 .bss           0x0000000000000000        0x0 findutils/lib.a(grep.o)
 .reginfo       0x0000000000000000       0x18 findutils/lib.a(grep.o)
 .pdr           0x0000000000000000       0xa0 findutils/lib.a(grep.o)
 .text          0x0000000000000000        0x0 init/lib.a(halt.o)
 .data          0x0000000000000000        0x0 init/lib.a(halt.o)
 .bss           0x0000000000000000        0x0 init/lib.a(halt.o)
 .reginfo       0x0000000000000000       0x18 init/lib.a(halt.o)
 .pdr           0x0000000000000000       0x20 init/lib.a(halt.o)
 .text          0x0000000000000000        0x0 init/lib.a(init.o)
 .data          0x0000000000000000        0x0 init/lib.a(init.o)
 .bss           0x0000000000000000        0x0 init/lib.a(init.o)
 .reginfo       0x0000000000000000       0x18 init/lib.a(init.o)
 .pdr           0x0000000000000000      0x260 init/lib.a(init.o)
 .text          0x0000000000000000        0x0 libbb/lib.a(ask_confirmation.o)
 .data          0x0000000000000000        0x0 libbb/lib.a(ask_confirmation.o)
 .bss           0x0000000000000000        0x0 libbb/lib.a(ask_confirmation.o)
 .reginfo       0x0000000000000000       0x18 libbb/lib.a(ask_confirmation.o)
 .pdr           0x0000000000000000       0x20 libbb/lib.a(ask_confirmation.o)
 .text          0x0000000000000000        0x0 libbb/lib.a(bb_basename.o)
 .data          0x0000000000000000        0x0 libbb/lib.a(bb_basename.o)
 .bss           0x0000000000000000        0x0 libbb/lib.a(bb_basename.o)
 .reginfo       0x0000000000000000       0x18 libbb/lib.a(bb_basename.o)
 .pdr           0x0000000000000000       0x20 libbb/lib.a(bb_basename.o)
 .text          0x0000000000000000        0x0 libbb/lib.a(bb_pwd.o)
 .data          0x0000000000000000        0x0 libbb/lib.a(bb_pwd.o)
 .bss           0x0000000000000000        0x0 libbb/lib.a(bb_pwd.o)
 .reginfo       0x0000000000000000       0x18 libbb/lib.a(bb_pwd.o)
 .pdr           0x0000000000000000       0xc0 libbb/lib.a(bb_pwd.o)
 .text.get_ug_id
                0x0000000000000000       0x8c libbb/lib.a(bb_pwd.o)
 .text.xgroup2gid
                0x0000000000000000       0x60 libbb/lib.a(bb_pwd.o)
 .text          0x0000000000000000        0x0 libbb/lib.a(bb_strtonum.o)
 .data          0x0000000000000000        0x0 libbb/lib.a(bb_strtonum.o)
 .bss           0x0000000000000000        0x0 libbb/lib.a(bb_strtonum.o)
 .reginfo       0x0000000000000000       0x18 libbb/lib.a(bb_strtonum.o)
 .pdr           0x0000000000000000       0xc0 libbb/lib.a(bb_strtonum.o)
 .text.bb_strtoll
                0x0000000000000000       0xd0 libbb/lib.a(bb_strtonum.o)
 .text.bb_strtoull
                0x0000000000000000       0xbc libbb/lib.a(bb_strtonum.o)
 .text          0x0000000000000000        0x0 libbb/lib.a(compare_string_array.o)
 .data          0x0000000000000000        0x0 libbb/lib.a(compare_string_array.o)
 .bss           0x0000000000000000        0x0 libbb/lib.a(compare_string_array.o)
 .reginfo       0x0000000000000000       0x18 libbb/lib.a(compare_string_array.o)
 .pdr           0x0000000000000000       0x60 libbb/lib.a(compare_string_array.o)
 .text.index_in_str_array
                0x0000000000000000       0x84 libbb/lib.a(compare_string_array.o)
 .text          0x0000000000000000        0x0 libbb/lib.a(concat_path_file.o)
 .data          0x0000000000000000        0x0 libbb/lib.a(concat_path_file.o)
 .bss           0x0000000000000000        0x0 libbb/lib.a(concat_path_file.o)
 .reginfo       0x0000000000000000       0x18 libbb/lib.a(concat_path_file.o)
 .pdr           0x0000000000000000       0x20 libbb/lib.a(concat_path_file.o)
 .text          0x0000000000000000        0x0 libbb/lib.a(copy_file.o)
 .data          0x0000000000000000        0x0 libbb/lib.a(copy_file.o)
 .bss           0x0000000000000000        0x0 libbb/lib.a(copy_file.o)
 .reginfo       0x0000000000000000       0x18 libbb/lib.a(copy_file.o)
 .pdr           0x0000000000000000       0x40 libbb/lib.a(copy_file.o)
 .text          0x0000000000000000        0x0 libbb/lib.a(copyfd.o)
 .data          0x0000000000000000        0x0 libbb/lib.a(copyfd.o)
 .bss           0x0000000000000000        0x0 libbb/lib.a(copyfd.o)
 .reginfo       0x0000000000000000       0x18 libbb/lib.a(copyfd.o)
 .pdr           0x0000000000000000       0x80 libbb/lib.a(copyfd.o)
 .text.bb_copyfd_size
                0x0000000000000000       0x30 libbb/lib.a(copyfd.o)
 .rodata.str1.4
                0x0000000000000000        0xc libbb/lib.a(copyfd.o)
 .text.bb_copyfd_exact_size
                0x0000000000000000       0x78 libbb/lib.a(copyfd.o)
 .text          0x0000000000000000        0x0 libbb/lib.a(default_error_retval.o)
 .data          0x0000000000000000        0x0 libbb/lib.a(default_error_retval.o)
 .bss           0x0000000000000000        0x0 libbb/lib.a(default_error_retval.o)
 .reginfo       0x0000000000000000       0x18 libbb/lib.a(default_error_retval.o)
 .text          0x0000000000000000        0x0 libbb/lib.a(device_open.o)
 .data          0x0000000000000000        0x0 libbb/lib.a(device_open.o)
 .bss           0x0000000000000000        0x0 libbb/lib.a(device_open.o)
 .reginfo       0x0000000000000000       0x18 libbb/lib.a(device_open.o)
 .pdr           0x0000000000000000       0x20 libbb/lib.a(device_open.o)
 .text          0x0000000000000000        0x0 libbb/lib.a(error_msg.o)
 .data          0x0000000000000000        0x0 libbb/lib.a(error_msg.o)
 .bss           0x0000000000000000        0x0 libbb/lib.a(error_msg.o)
 .reginfo       0x0000000000000000       0x18 libbb/lib.a(error_msg.o)
 .pdr           0x0000000000000000       0x20 libbb/lib.a(error_msg.o)
 .text          0x0000000000000000        0x0 libbb/lib.a(error_msg_and_die.o)
 .data          0x0000000000000000        0x0 libbb/lib.a(error_msg_and_die.o)
 .bss           0x0000000000000000        0x0 libbb/lib.a(error_msg_and_die.o)
 .reginfo       0x0000000000000000       0x18 libbb/lib.a(error_msg_and_die.o)
 .pdr           0x0000000000000000       0x40 libbb/lib.a(error_msg_and_die.o)
 .text          0x0000000000000000        0x0 libbb/lib.a(execable.o)
 .data          0x0000000000000000        0x0 libbb/lib.a(execable.o)
 .bss           0x0000000000000000        0x0 libbb/lib.a(execable.o)
 .reginfo       0x0000000000000000       0x18 libbb/lib.a(execable.o)
 .pdr           0x0000000000000000       0x60 libbb/lib.a(execable.o)
 .text.exists_execable
                0x0000000000000000       0x60 libbb/lib.a(execable.o)
 .text          0x0000000000000000        0x0 libbb/lib.a(fclose_nonstdin.o)
 .data          0x0000000000000000        0x0 libbb/lib.a(fclose_nonstdin.o)
 .bss           0x0000000000000000        0x0 libbb/lib.a(fclose_nonstdin.o)
 .reginfo       0x0000000000000000       0x18 libbb/lib.a(fclose_nonstdin.o)
 .pdr           0x0000000000000000       0x20 libbb/lib.a(fclose_nonstdin.o)
 .text          0x0000000000000000        0x0 libbb/lib.a(fflush_stdout_and_exit.o)
 .data          0x0000000000000000        0x0 libbb/lib.a(fflush_stdout_and_exit.o)
 .bss           0x0000000000000000        0x0 libbb/lib.a(fflush_stdout_and_exit.o)
 .reginfo       0x0000000000000000       0x18 libbb/lib.a(fflush_stdout_and_exit.o)
 .pdr           0x0000000000000000       0x20 libbb/lib.a(fflush_stdout_and_exit.o)
 .text          0x0000000000000000        0x0 libbb/lib.a(find_mount_point.o)
 .data          0x0000000000000000        0x0 libbb/lib.a(find_mount_point.o)
 .bss           0x0000000000000000        0x0 libbb/lib.a(find_mount_point.o)
 .reginfo       0x0000000000000000       0x18 libbb/lib.a(find_mount_point.o)
 .pdr           0x0000000000000000       0x20 libbb/lib.a(find_mount_point.o)
 .text          0x0000000000000000        0x0 libbb/lib.a(find_root_device.o)
 .data          0x0000000000000000        0x0 libbb/lib.a(find_root_device.o)
 .bss           0x0000000000000000        0x0 libbb/lib.a(find_root_device.o)
 .reginfo       0x0000000000000000       0x18 libbb/lib.a(find_root_device.o)
 .pdr           0x0000000000000000       0x40 libbb/lib.a(find_root_device.o)
 .text          0x0000000000000000        0x0 libbb/lib.a(full_write.o)
 .data          0x0000000000000000        0x0 libbb/lib.a(full_write.o)
 .bss           0x0000000000000000        0x0 libbb/lib.a(full_write.o)
 .reginfo       0x0000000000000000       0x18 libbb/lib.a(full_write.o)
 .pdr           0x0000000000000000       0x20 libbb/lib.a(full_write.o)
 .text          0x0000000000000000        0x0 libbb/lib.a(get_last_path_component.o)
 .data          0x0000000000000000        0x0 libbb/lib.a(get_last_path_component.o)
 .bss           0x0000000000000000        0x0 libbb/lib.a(get_last_path_component.o)
 .reginfo       0x0000000000000000       0x18 libbb/lib.a(get_last_path_component.o)
 .pdr           0x0000000000000000       0x20 libbb/lib.a(get_last_path_component.o)
 .text          0x0000000000000000        0x0 libbb/lib.a(get_line_from_file.o)
 .data          0x0000000000000000        0x0 libbb/lib.a(get_line_from_file.o)
 .bss           0x0000000000000000        0x0 libbb/lib.a(get_line_from_file.o)
 .reginfo       0x0000000000000000       0x18 libbb/lib.a(get_line_from_file.o)
 .pdr           0x0000000000000000       0x60 libbb/lib.a(get_line_from_file.o)
 .text          0x0000000000000000        0x0 libbb/lib.a(getopt32.o)
 .data          0x0000000000000000        0x0 libbb/lib.a(getopt32.o)
 .bss           0x0000000000000000        0x0 libbb/lib.a(getopt32.o)
 .reginfo       0x0000000000000000       0x18 libbb/lib.a(getopt32.o)
 .pdr           0x0000000000000000       0x20 libbb/lib.a(getopt32.o)
 .text          0x0000000000000000        0x0 libbb/lib.a(inode_hash.o)
 .data          0x0000000000000000        0x0 libbb/lib.a(inode_hash.o)
 .bss           0x0000000000000000        0x0 libbb/lib.a(inode_hash.o)
 .reginfo       0x0000000000000000       0x18 libbb/lib.a(inode_hash.o)
 .pdr           0x0000000000000000       0x40 libbb/lib.a(inode_hash.o)
 .text          0x0000000000000000        0x0 libbb/lib.a(isdirectory.o)
 .data          0x0000000000000000        0x0 libbb/lib.a(isdirectory.o)
 .bss           0x0000000000000000        0x0 libbb/lib.a(isdirectory.o)
 .reginfo       0x0000000000000000       0x18 libbb/lib.a(isdirectory.o)
 .pdr           0x0000000000000000       0x20 libbb/lib.a(isdirectory.o)
 .text          0x0000000000000000        0x0 libbb/lib.a(last_char_is.o)
 .data          0x0000000000000000        0x0 libbb/lib.a(last_char_is.o)
 .bss           0x0000000000000000        0x0 libbb/lib.a(last_char_is.o)
 .reginfo       0x0000000000000000       0x18 libbb/lib.a(last_char_is.o)
 .pdr           0x0000000000000000       0x20 libbb/lib.a(last_char_is.o)
 .text          0x0000000000000000        0x0 libbb/lib.a(llist.o)
 .data          0x0000000000000000        0x0 libbb/lib.a(llist.o)
 .bss           0x0000000000000000        0x0 libbb/lib.a(llist.o)
 .reginfo       0x0000000000000000       0x18 libbb/lib.a(llist.o)
 .pdr           0x0000000000000000       0xa0 libbb/lib.a(llist.o)
 .text          0x0000000000000000        0x0 libbb/lib.a(make_directory.o)
 .data          0x0000000000000000        0x0 libbb/lib.a(make_directory.o)
 .bss           0x0000000000000000        0x0 libbb/lib.a(make_directory.o)
 .reginfo       0x0000000000000000       0x18 libbb/lib.a(make_directory.o)
 .pdr           0x0000000000000000       0x20 libbb/lib.a(make_directory.o)
 .text          0x0000000000000000        0x0 libbb/lib.a(makedev.o)
 .data          0x0000000000000000        0x0 libbb/lib.a(makedev.o)
 .bss           0x0000000000000000        0x0 libbb/lib.a(makedev.o)
 .reginfo       0x0000000000000000       0x18 libbb/lib.a(makedev.o)
 .pdr           0x0000000000000000       0x20 libbb/lib.a(makedev.o)
 .text          0x0000000000000000        0x0 libbb/lib.a(md5.o)
 .data          0x0000000000000000        0x0 libbb/lib.a(md5.o)
 .bss           0x0000000000000000        0x0 libbb/lib.a(md5.o)
 .reginfo       0x0000000000000000       0x18 libbb/lib.a(md5.o)
 .pdr           0x0000000000000000       0x80 libbb/lib.a(md5.o)
 .text          0x0000000000000000        0x0 libbb/lib.a(messages.o)
 .bss           0x0000000000000000        0x0 libbb/lib.a(messages.o)
 .reginfo       0x0000000000000000       0x18 libbb/lib.a(messages.o)
 .rodata.bb_msg_unknown
                0x0000000000000000        0xa libbb/lib.a(messages.o)
 .rodata.bb_path_passwd_file
                0x0000000000000000        0xc libbb/lib.a(messages.o)
 .rodata.bb_path_shadow_file
                0x0000000000000000        0xc libbb/lib.a(messages.o)
 .rodata.bb_path_group_file
                0x0000000000000000        0xb libbb/lib.a(messages.o)
 .rodata.bb_path_gshadow_file
                0x0000000000000000        0xd libbb/lib.a(messages.o)
 .rodata.bb_path_motd_file
                0x0000000000000000        0xa libbb/lib.a(messages.o)
 .rodata.bb_busybox_exec_path
                0x0000000000000000        0xf libbb/lib.a(messages.o)
 .rodata.bb_path_wtmp_file
                0x0000000000000000        0xe libbb/lib.a(messages.o)
 .text          0x0000000000000000        0x0 libbb/lib.a(mode_string.o)
 .data          0x0000000000000000        0x0 libbb/lib.a(mode_string.o)
 .bss           0x0000000000000000        0x0 libbb/lib.a(mode_string.o)
 .reginfo       0x0000000000000000       0x18 libbb/lib.a(mode_string.o)
 .pdr           0x0000000000000000       0x20 libbb/lib.a(mode_string.o)
 .text          0x0000000000000000        0x0 libbb/lib.a(mtab_file.o)
 .data          0x0000000000000000        0x0 libbb/lib.a(mtab_file.o)
 .bss           0x0000000000000000        0x0 libbb/lib.a(mtab_file.o)
 .reginfo       0x0000000000000000       0x18 libbb/lib.a(mtab_file.o)
 .text          0x0000000000000000        0x0 libbb/lib.a(parse_mode.o)
 .data          0x0000000000000000        0x0 libbb/lib.a(parse_mode.o)
 .bss           0x0000000000000000        0x0 libbb/lib.a(parse_mode.o)
 .reginfo       0x0000000000000000       0x18 libbb/lib.a(parse_mode.o)
 .pdr           0x0000000000000000       0x20 libbb/lib.a(parse_mode.o)
 .text          0x0000000000000000        0x0 libbb/lib.a(perror_msg.o)
 .data          0x0000000000000000        0x0 libbb/lib.a(perror_msg.o)
 .bss           0x0000000000000000        0x0 libbb/lib.a(perror_msg.o)
 .reginfo       0x0000000000000000       0x18 libbb/lib.a(perror_msg.o)
 .pdr           0x0000000000000000       0x20 libbb/lib.a(perror_msg.o)
 .text          0x0000000000000000        0x0 libbb/lib.a(perror_msg_and_die.o)
 .data          0x0000000000000000        0x0 libbb/lib.a(perror_msg_and_die.o)
 .bss           0x0000000000000000        0x0 libbb/lib.a(perror_msg_and_die.o)
 .reginfo       0x0000000000000000       0x18 libbb/lib.a(perror_msg_and_die.o)
 .pdr           0x0000000000000000       0x20 libbb/lib.a(perror_msg_and_die.o)
 .text          0x0000000000000000        0x0 libbb/lib.a(perror_nomsg_and_die.o)
 .data          0x0000000000000000        0x0 libbb/lib.a(perror_nomsg_and_die.o)
 .bss           0x0000000000000000        0x0 libbb/lib.a(perror_nomsg_and_die.o)
 .reginfo       0x0000000000000000       0x18 libbb/lib.a(perror_nomsg_and_die.o)
 .pdr           0x0000000000000000       0x20 libbb/lib.a(perror_nomsg_and_die.o)
 .text          0x0000000000000000        0x0 libbb/lib.a(process_escape_sequence.o)
 .data          0x0000000000000000        0x0 libbb/lib.a(process_escape_sequence.o)
 .bss           0x0000000000000000        0x0 libbb/lib.a(process_escape_sequence.o)
 .reginfo       0x0000000000000000       0x18 libbb/lib.a(process_escape_sequence.o)
 .pdr           0x0000000000000000       0x20 libbb/lib.a(process_escape_sequence.o)
 .text          0x0000000000000000        0x0 libbb/lib.a(read.o)
 .data          0x0000000000000000        0x0 libbb/lib.a(read.o)
 .bss           0x0000000000000000        0x0 libbb/lib.a(read.o)
 .reginfo       0x0000000000000000       0x18 libbb/lib.a(read.o)
 .pdr           0x0000000000000000      0x120 libbb/lib.a(read.o)
 .text.xmalloc_reads
                0x0000000000000000      0x144 libbb/lib.a(read.o)
 .text.xread    0x0000000000000000       0x64 libbb/lib.a(read.o)
 .text.xread_char
                0x0000000000000000       0x3c libbb/lib.a(read.o)
 .text          0x0000000000000000        0x0 libbb/lib.a(recursive_action.o)
 .data          0x0000000000000000        0x0 libbb/lib.a(recursive_action.o)
 .bss           0x0000000000000000        0x0 libbb/lib.a(recursive_action.o)
 .reginfo       0x0000000000000000       0x18 libbb/lib.a(recursive_action.o)
 .pdr           0x0000000000000000       0x40 libbb/lib.a(recursive_action.o)
 .text          0x0000000000000000        0x0 libbb/lib.a(remove_file.o)
 .data          0x0000000000000000        0x0 libbb/lib.a(remove_file.o)
 .bss           0x0000000000000000        0x0 libbb/lib.a(remove_file.o)
 .reginfo       0x0000000000000000       0x18 libbb/lib.a(remove_file.o)
 .pdr           0x0000000000000000       0x20 libbb/lib.a(remove_file.o)
 .text          0x0000000000000000        0x0 libbb/lib.a(safe_strncpy.o)
 .data          0x0000000000000000        0x0 libbb/lib.a(safe_strncpy.o)
 .bss           0x0000000000000000        0x0 libbb/lib.a(safe_strncpy.o)
 .reginfo       0x0000000000000000       0x18 libbb/lib.a(safe_strncpy.o)
 .pdr           0x0000000000000000       0x20 libbb/lib.a(safe_strncpy.o)
 .text          0x0000000000000000        0x0 libbb/lib.a(safe_write.o)
 .data          0x0000000000000000        0x0 libbb/lib.a(safe_write.o)
 .bss           0x0000000000000000        0x0 libbb/lib.a(safe_write.o)
 .reginfo       0x0000000000000000       0x18 libbb/lib.a(safe_write.o)
 .pdr           0x0000000000000000       0x20 libbb/lib.a(safe_write.o)
 .text          0x0000000000000000        0x0 libbb/lib.a(skip_whitespace.o)
 .data          0x0000000000000000        0x0 libbb/lib.a(skip_whitespace.o)
 .bss           0x0000000000000000        0x0 libbb/lib.a(skip_whitespace.o)
 .reginfo       0x0000000000000000       0x18 libbb/lib.a(skip_whitespace.o)
 .pdr           0x0000000000000000       0x40 libbb/lib.a(skip_whitespace.o)
 .text.skip_non_whitespace
                0x0000000000000000       0x68 libbb/lib.a(skip_whitespace.o)
 .text          0x0000000000000000        0x0 libbb/lib.a(speed_table.o)
 .data          0x0000000000000000        0x0 libbb/lib.a(speed_table.o)
 .bss           0x0000000000000000        0x0 libbb/lib.a(speed_table.o)
 .reginfo       0x0000000000000000       0x18 libbb/lib.a(speed_table.o)
 .pdr           0x0000000000000000       0x40 libbb/lib.a(speed_table.o)
 .text          0x0000000000000000        0x0 libbb/lib.a(verror_msg.o)
 .data          0x0000000000000000        0x0 libbb/lib.a(verror_msg.o)
 .bss           0x0000000000000000        0x0 libbb/lib.a(verror_msg.o)
 .reginfo       0x0000000000000000       0x18 libbb/lib.a(verror_msg.o)
 .pdr           0x0000000000000000       0x20 libbb/lib.a(verror_msg.o)
 .text          0x0000000000000000        0x0 libbb/lib.a(vfork_daemon_rexec.o)
 .data          0x0000000000000000        0x0 libbb/lib.a(vfork_daemon_rexec.o)
 .bss           0x0000000000000000        0x0 libbb/lib.a(vfork_daemon_rexec.o)
 .reginfo       0x0000000000000000       0x18 libbb/lib.a(vfork_daemon_rexec.o)
 .pdr           0x0000000000000000      0x120 libbb/lib.a(vfork_daemon_rexec.o)
 .text.wait_pid
                0x0000000000000000       0x98 libbb/lib.a(vfork_daemon_rexec.o)
 .text.wait_nohang
                0x0000000000000000       0x20 libbb/lib.a(vfork_daemon_rexec.o)
 .text.spawn_and_wait
                0x0000000000000000       0x44 libbb/lib.a(vfork_daemon_rexec.o)
 .text.xspawn   0x0000000000000000       0x60 libbb/lib.a(vfork_daemon_rexec.o)
 .text          0x0000000000000000        0x0 libbb/lib.a(warn_ignoring_args.o)
 .data          0x0000000000000000        0x0 libbb/lib.a(warn_ignoring_args.o)
 .bss           0x0000000000000000        0x0 libbb/lib.a(warn_ignoring_args.o)
 .reginfo       0x0000000000000000       0x18 libbb/lib.a(warn_ignoring_args.o)
 .pdr           0x0000000000000000       0x20 libbb/lib.a(warn_ignoring_args.o)
 .text          0x0000000000000000        0x0 libbb/lib.a(wfopen_input.o)
 .data          0x0000000000000000        0x0 libbb/lib.a(wfopen_input.o)
 .bss           0x0000000000000000        0x0 libbb/lib.a(wfopen_input.o)
 .reginfo       0x0000000000000000       0x18 libbb/lib.a(wfopen_input.o)
 .pdr           0x0000000000000000       0x20 libbb/lib.a(wfopen_input.o)
 .text          0x0000000000000000        0x0 libbb/lib.a(xatonum.o)
 .data          0x0000000000000000        0x0 libbb/lib.a(xatonum.o)
 .bss           0x0000000000000000        0x0 libbb/lib.a(xatonum.o)
 .reginfo       0x0000000000000000       0x18 libbb/lib.a(xatonum.o)
 .pdr           0x0000000000000000      0x3c0 libbb/lib.a(xatonum.o)
 .text.xatol_sfx
                0x0000000000000000       0x44 libbb/lib.a(xatonum.o)
 .text.xatol_range_sfx
                0x0000000000000000       0x44 libbb/lib.a(xatonum.o)
 .text.xstrtol_range
                0x0000000000000000       0x38 libbb/lib.a(xatonum.o)
 .text.xstrtoul
                0x0000000000000000       0x3c libbb/lib.a(xatonum.o)
 .text.xstrtoul_sfx
                0x0000000000000000       0x3c libbb/lib.a(xatonum.o)
 .text.xstrtoul_range
                0x0000000000000000       0x38 libbb/lib.a(xatonum.o)
 .text.xstrtoull_range_sfx
                0x0000000000000000      0x258 libbb/lib.a(xatonum.o)
 .text.xstrtoll_range_sfx
                0x0000000000000000      0x130 libbb/lib.a(xatonum.o)
 .text.xatoll   0x0000000000000000       0x54 libbb/lib.a(xatonum.o)
 .text.xatoll_sfx
                0x0000000000000000       0x54 libbb/lib.a(xatonum.o)
 .text.xatoll_range
                0x0000000000000000       0x48 libbb/lib.a(xatonum.o)
 .text.xatoll_range_sfx
                0x0000000000000000       0x1c libbb/lib.a(xatonum.o)
 .text.xstrtoll_range
                0x0000000000000000       0x44 libbb/lib.a(xatonum.o)
 .text.xatoull_sfx
                0x0000000000000000       0x50 libbb/lib.a(xatonum.o)
 .text.xatoull  0x0000000000000000       0x1c libbb/lib.a(xatonum.o)
 .text.xatoull_range
                0x0000000000000000       0x48 libbb/lib.a(xatonum.o)
 .text.xatoull_range_sfx
                0x0000000000000000       0x1c libbb/lib.a(xatonum.o)
 .text.xstrtoull
                0x0000000000000000       0x4c libbb/lib.a(xatonum.o)
 .text.xstrtoull_sfx
                0x0000000000000000       0x4c libbb/lib.a(xatonum.o)
 .text.xstrtoull_range
                0x0000000000000000       0x44 libbb/lib.a(xatonum.o)
 .text          0x0000000000000000        0x0 libbb/lib.a(xfuncs.o)
 .data          0x0000000000000000        0x0 libbb/lib.a(xfuncs.o)
 .bss           0x0000000000000000        0x0 libbb/lib.a(xfuncs.o)
 .reginfo       0x0000000000000000       0x18 libbb/lib.a(xfuncs.o)
 .pdr           0x0000000000000000      0x640 libbb/lib.a(xfuncs.o)
 .text.smart_ulltoa5
                0x0000000000000000      0x2d8 libbb/lib.a(xfuncs.o)
 .text.utoa     0x0000000000000000       0x4c libbb/lib.a(xfuncs.o)
 .text.ioctl_or_perror
                0x0000000000000000       0x9c libbb/lib.a(xfuncs.o)
 .text.selinux_or_die
                0x0000000000000000       0x2c libbb/lib.a(xfuncs.o)
 .text.xlisten  0x0000000000000000       0x58 libbb/lib.a(xfuncs.o)
 .text.xprint_and_close_file
                0x0000000000000000       0x98 libbb/lib.a(xfuncs.o)
 .text.fdlength
                0x0000000000000000      0x124 libbb/lib.a(xfuncs.o)
 .text.xsetenv  0x0000000000000000       0x58 libbb/lib.a(xfuncs.o)
 .text.sig_pause
                0x0000000000000000       0x58 libbb/lib.a(xfuncs.o)
 .text.sig_catch
                0x0000000000000000       0x64 libbb/lib.a(xfuncs.o)
 .text.sig_unblock
                0x0000000000000000       0x80 libbb/lib.a(xfuncs.o)
 .text.sig_block
                0x0000000000000000       0x80 libbb/lib.a(xfuncs.o)
 .text.die_if_ferror_stdout
                0x0000000000000000       0x24 libbb/lib.a(xfuncs.o)
 .text.ndelay_off
                0x0000000000000000       0x54 libbb/lib.a(xfuncs.o)
 .text.ndelay_on
                0x0000000000000000       0x50 libbb/lib.a(xfuncs.o)
 .text.xunlink  0x0000000000000000       0x5c libbb/lib.a(xfuncs.o)
 .text.xpipe    0x0000000000000000       0x58 libbb/lib.a(xfuncs.o)
 .text.malloc_or_warn
                0x0000000000000000       0x70 libbb/lib.a(xfuncs.o)
 .text          0x0000000000000000        0x0 libbb/lib.a(xgetcwd.o)
 .data          0x0000000000000000        0x0 libbb/lib.a(xgetcwd.o)
 .bss           0x0000000000000000        0x0 libbb/lib.a(xgetcwd.o)
 .reginfo       0x0000000000000000       0x18 libbb/lib.a(xgetcwd.o)
 .pdr           0x0000000000000000       0x20 libbb/lib.a(xgetcwd.o)
 .text          0x0000000000000000        0x0 libbb/lib.a(xreadlink.o)
 .data          0x0000000000000000        0x0 libbb/lib.a(xreadlink.o)
 .bss           0x0000000000000000        0x0 libbb/lib.a(xreadlink.o)
 .reginfo       0x0000000000000000       0x18 libbb/lib.a(xreadlink.o)
 .pdr           0x0000000000000000       0x40 libbb/lib.a(xreadlink.o)
 .text          0x0000000000000000        0x0 libbb/lib.a(xregcomp.o)
 .data          0x0000000000000000        0x0 libbb/lib.a(xregcomp.o)
 .bss           0x0000000000000000        0x0 libbb/lib.a(xregcomp.o)
 .reginfo       0x0000000000000000       0x18 libbb/lib.a(xregcomp.o)
 .pdr           0x0000000000000000       0x40 libbb/lib.a(xregcomp.o)
 .text          0x0000000000000000        0x0 libbb/lib.a(concat_subpath_file.o)
 .data          0x0000000000000000        0x0 libbb/lib.a(concat_subpath_file.o)
 .bss           0x0000000000000000        0x0 libbb/lib.a(concat_subpath_file.o)
 .reginfo       0x0000000000000000       0x18 libbb/lib.a(concat_subpath_file.o)
 .pdr           0x0000000000000000       0x20 libbb/lib.a(concat_subpath_file.o)
 .text          0x0000000000000000        0x0 libbb/lib.a(wfopen.o)
 .data          0x0000000000000000        0x0 libbb/lib.a(wfopen.o)
 .bss           0x0000000000000000        0x0 libbb/lib.a(wfopen.o)
 .reginfo       0x0000000000000000       0x18 libbb/lib.a(wfopen.o)
 .pdr           0x0000000000000000       0x20 libbb/lib.a(wfopen.o)
 .text          0x0000000000000000        0x0 miscutils/lib.a(time.o)
 .data          0x0000000000000000        0x0 miscutils/lib.a(time.o)
 .bss           0x0000000000000000        0x0 miscutils/lib.a(time.o)
 .reginfo       0x0000000000000000       0x18 miscutils/lib.a(time.o)
 .pdr           0x0000000000000000       0x60 miscutils/lib.a(time.o)
 .text          0x0000000000000000        0x0 miscutils/lib.a(watchdog.o)
 .data          0x0000000000000000        0x0 miscutils/lib.a(watchdog.o)
 .bss           0x0000000000000000        0x0 miscutils/lib.a(watchdog.o)
 .reginfo       0x0000000000000000       0x18 miscutils/lib.a(watchdog.o)
 .pdr           0x0000000000000000       0x40 miscutils/lib.a(watchdog.o)
 .text          0x0000000000000000        0x0 modutils/lib.a(insmod.o)
 .data          0x0000000000000000        0x0 modutils/lib.a(insmod.o)
 .bss           0x0000000000000000        0x0 modutils/lib.a(insmod.o)
 .reginfo       0x0000000000000000       0x18 modutils/lib.a(insmod.o)
 .pdr           0x0000000000000000       0x20 modutils/lib.a(insmod.o)
 .text          0x0000000000000000        0x0 modutils/lib.a(lsmod.o)
 .data          0x0000000000000000        0x0 modutils/lib.a(lsmod.o)
 .bss           0x0000000000000000        0x0 modutils/lib.a(lsmod.o)
 .reginfo       0x0000000000000000       0x18 modutils/lib.a(lsmod.o)
 .pdr           0x0000000000000000       0x20 modutils/lib.a(lsmod.o)
 .text          0x0000000000000000        0x0 modutils/lib.a(modprobe.o)
 .data          0x0000000000000000        0x0 modutils/lib.a(modprobe.o)
 .bss           0x0000000000000000        0x0 modutils/lib.a(modprobe.o)
 .reginfo       0x0000000000000000       0x18 modutils/lib.a(modprobe.o)
 .pdr           0x0000000000000000      0x120 modutils/lib.a(modprobe.o)
 .text          0x0000000000000000        0x0 modutils/lib.a(rmmod.o)
 .data          0x0000000000000000        0x0 modutils/lib.a(rmmod.o)
 .bss           0x0000000000000000        0x0 modutils/lib.a(rmmod.o)
 .reginfo       0x0000000000000000       0x18 modutils/lib.a(rmmod.o)
 .pdr           0x0000000000000000       0x20 modutils/lib.a(rmmod.o)
 .text          0x0000000000000000        0x0 networking/lib.a(arp.o)
 .data          0x0000000000000000        0x0 networking/lib.a(arp.o)
 .bss           0x0000000000000000        0x0 networking/lib.a(arp.o)
 .reginfo       0x0000000000000000       0x18 networking/lib.a(arp.o)
 .pdr           0x0000000000000000       0x40 networking/lib.a(arp.o)
 .text          0x0000000000000000        0x0 networking/lib.a(ftpgetput.o)
 .data          0x0000000000000000        0x0 networking/lib.a(ftpgetput.o)
 .bss           0x0000000000000000        0x0 networking/lib.a(ftpgetput.o)
 .reginfo       0x0000000000000000       0x18 networking/lib.a(ftpgetput.o)
 .pdr           0x0000000000000000       0xa0 networking/lib.a(ftpgetput.o)
 .text          0x0000000000000000        0x0 networking/lib.a(ifconfig.o)
 .data          0x0000000000000000        0x0 networking/lib.a(ifconfig.o)
 .bss           0x0000000000000000        0x0 networking/lib.a(ifconfig.o)
 .reginfo       0x0000000000000000       0x18 networking/lib.a(ifconfig.o)
 .pdr           0x0000000000000000       0x20 networking/lib.a(ifconfig.o)
 .text          0x0000000000000000        0x0 networking/lib.a(ifupdown.o)
 .data          0x0000000000000000        0x0 networking/lib.a(ifupdown.o)
 .bss           0x0000000000000000        0x0 networking/lib.a(ifupdown.o)
 .reginfo       0x0000000000000000       0x18 networking/lib.a(ifupdown.o)
 .pdr           0x0000000000000000      0x340 networking/lib.a(ifupdown.o)
 .text          0x0000000000000000        0x0 networking/lib.a(interface.o)
 .data          0x0000000000000000        0x0 networking/lib.a(interface.o)
 .bss           0x0000000000000000        0x0 networking/lib.a(interface.o)
 .reginfo       0x0000000000000000       0x18 networking/lib.a(interface.o)
 .pdr           0x0000000000000000      0x280 networking/lib.a(interface.o)
 .text          0x0000000000000000        0x0 networking/lib.a(ip.o)
 .data          0x0000000000000000        0x0 networking/lib.a(ip.o)
 .bss           0x0000000000000000        0x0 networking/lib.a(ip.o)
 .reginfo       0x0000000000000000       0x18 networking/lib.a(ip.o)
 .pdr           0x0000000000000000       0x60 networking/lib.a(ip.o)
 .text.iplink_main
                0x0000000000000000       0x6c networking/lib.a(ip.o)
 .text          0x0000000000000000        0x0 networking/lib.a(netstat.o)
 .data          0x0000000000000000        0x0 networking/lib.a(netstat.o)
 .bss           0x0000000000000000        0x0 networking/lib.a(netstat.o)
 .reginfo       0x0000000000000000       0x18 networking/lib.a(netstat.o)
 .pdr           0x0000000000000000      0x120 networking/lib.a(netstat.o)
 .text          0x0000000000000000        0x0 networking/lib.a(ping.o)
 .data          0x0000000000000000        0x0 networking/lib.a(ping.o)
 .bss           0x0000000000000000        0x0 networking/lib.a(ping.o)
 .reginfo       0x0000000000000000       0x18 networking/lib.a(ping.o)
 .pdr           0x0000000000000000      0x120 networking/lib.a(ping.o)
 .text          0x0000000000000000        0x0 networking/lib.a(route.o)
 .data          0x0000000000000000        0x0 networking/lib.a(route.o)
 .bss           0x0000000000000000        0x0 networking/lib.a(route.o)
 .reginfo       0x0000000000000000       0x18 networking/lib.a(route.o)
 .pdr           0x0000000000000000       0xa0 networking/lib.a(route.o)
 .text          0x0000000000000000        0x0 networking/lib.a(tftp.o)
 .data          0x0000000000000000        0x0 networking/lib.a(tftp.o)
 .bss           0x0000000000000000        0x0 networking/lib.a(tftp.o)
 .reginfo       0x0000000000000000       0x18 networking/lib.a(tftp.o)
 .pdr           0x0000000000000000       0x80 networking/lib.a(tftp.o)
 .text          0x0000000000000000        0x0 networking/lib.a(vconfig.o)
 .data          0x0000000000000000        0x0 networking/lib.a(vconfig.o)
 .bss           0x0000000000000000        0x0 networking/lib.a(vconfig.o)
 .reginfo       0x0000000000000000       0x18 networking/lib.a(vconfig.o)
 .pdr           0x0000000000000000       0x40 networking/lib.a(vconfig.o)
 .text          0x0000000000000000        0x0 networking/libiproute/lib.a(ip_parse_common_args.o)
 .data          0x0000000000000000        0x0 networking/libiproute/lib.a(ip_parse_common_args.o)
 .bss           0x0000000000000000        0x0 networking/libiproute/lib.a(ip_parse_common_args.o)
 .reginfo       0x0000000000000000       0x18 networking/libiproute/lib.a(ip_parse_common_args.o)
 .pdr           0x0000000000000000       0x20 networking/libiproute/lib.a(ip_parse_common_args.o)
 .text          0x0000000000000000        0x0 networking/libiproute/lib.a(iplink.o)
 .data          0x0000000000000000        0x0 networking/libiproute/lib.a(iplink.o)
 .bss           0x0000000000000000        0x0 networking/libiproute/lib.a(iplink.o)
 .reginfo       0x0000000000000000       0x18 networking/libiproute/lib.a(iplink.o)
 .pdr           0x0000000000000000       0x80 networking/libiproute/lib.a(iplink.o)
 .text          0x0000000000000000        0x0 networking/libiproute/lib.a(ll_addr.o)
 .data          0x0000000000000000        0x0 networking/libiproute/lib.a(ll_addr.o)
 .bss           0x0000000000000000        0x0 networking/libiproute/lib.a(ll_addr.o)
 .reginfo       0x0000000000000000       0x18 networking/libiproute/lib.a(ll_addr.o)
 .pdr           0x0000000000000000       0x40 networking/libiproute/lib.a(ll_addr.o)
 .text          0x0000000000000000        0x0 networking/libiproute/lib.a(utils.o)
 .data          0x0000000000000000        0x0 networking/libiproute/lib.a(utils.o)
 .bss           0x0000000000000000        0x0 networking/libiproute/lib.a(utils.o)
 .reginfo       0x0000000000000000       0x18 networking/libiproute/lib.a(utils.o)
 .pdr           0x0000000000000000      0x260 networking/libiproute/lib.a(utils.o)
 .text.format_host
                0x0000000000000000       0x1c networking/libiproute/lib.a(utils.o)
 .text.get_addr32
                0x0000000000000000       0x68 networking/libiproute/lib.a(utils.o)
 .text.get_addr
                0x0000000000000000       0x78 networking/libiproute/lib.a(utils.o)
 .text.get_s8   0x0000000000000000       0xa4 networking/libiproute/lib.a(utils.o)
 .text.get_s16  0x0000000000000000       0xa8 networking/libiproute/lib.a(utils.o)
 .text.get_u8   0x0000000000000000       0x9c networking/libiproute/lib.a(utils.o)
 .text.get_u16  0x0000000000000000       0xa0 networking/libiproute/lib.a(utils.o)
 .text.get_u32  0x0000000000000000       0x94 networking/libiproute/lib.a(utils.o)
 .text.get_unsigned
                0x0000000000000000       0x94 networking/libiproute/lib.a(utils.o)
 .text          0x0000000000000000        0x0 networking/libiproute/lib.a(ipaddress.o)
 .data          0x0000000000000000        0x0 networking/libiproute/lib.a(ipaddress.o)
 .bss           0x0000000000000000        0x0 networking/libiproute/lib.a(ipaddress.o)
 .reginfo       0x0000000000000000       0x18 networking/libiproute/lib.a(ipaddress.o)
 .pdr           0x0000000000000000       0xc0 networking/libiproute/lib.a(ipaddress.o)
 .text.ipaddr_modify
                0x0000000000000000      0x720 networking/libiproute/lib.a(ipaddress.o)
 .rodata.ipaddr_modify
                0x0000000000000000       0x24 networking/libiproute/lib.a(ipaddress.o)
 .text.do_ipaddr
                0x0000000000000000       0xe8 networking/libiproute/lib.a(ipaddress.o)
 .rodata.commands.7857
                0x0000000000000000       0x20 networking/libiproute/lib.a(ipaddress.o)
 .rodata.option.7756
                0x0000000000000000       0x39 networking/libiproute/lib.a(ipaddress.o)
 .text          0x0000000000000000        0x0 networking/libiproute/lib.a(libnetlink.o)
 .data          0x0000000000000000        0x0 networking/libiproute/lib.a(libnetlink.o)
 .bss           0x0000000000000000        0x0 networking/libiproute/lib.a(libnetlink.o)
 .reginfo       0x0000000000000000       0x18 networking/libiproute/lib.a(libnetlink.o)
 .pdr           0x0000000000000000      0x1a0 networking/libiproute/lib.a(libnetlink.o)
 .text.rta_addattr_l
                0x0000000000000000       0xac networking/libiproute/lib.a(libnetlink.o)
 .text.rta_addattr32
                0x0000000000000000       0xa0 networking/libiproute/lib.a(libnetlink.o)
 .text.addattr_l
                0x0000000000000000       0xa8 networking/libiproute/lib.a(libnetlink.o)
 .text.addattr32
                0x0000000000000000       0xa0 networking/libiproute/lib.a(libnetlink.o)
 .text.rtnl_dump_request
                0x0000000000000000       0xc0 networking/libiproute/lib.a(libnetlink.o)
 .text.rtnl_talk
                0x0000000000000000      0x3a4 networking/libiproute/lib.a(libnetlink.o)
 .text.rtnl_close
                0x0000000000000000       0x20 networking/libiproute/lib.a(libnetlink.o)
 .text          0x0000000000000000        0x0 networking/libiproute/lib.a(ll_map.o)
 .data          0x0000000000000000        0x0 networking/libiproute/lib.a(ll_map.o)
 .bss           0x0000000000000000        0x0 networking/libiproute/lib.a(ll_map.o)
 .reginfo       0x0000000000000000       0x18 networking/libiproute/lib.a(ll_map.o)
 .pdr           0x0000000000000000       0xe0 networking/libiproute/lib.a(ll_map.o)
 .text.ll_init_map
                0x0000000000000000       0x64 networking/libiproute/lib.a(ll_map.o)
 .text          0x0000000000000000        0x0 networking/libiproute/lib.a(ll_types.o)
 .data          0x0000000000000000        0x0 networking/libiproute/lib.a(ll_types.o)
 .bss           0x0000000000000000        0x0 networking/libiproute/lib.a(ll_types.o)
 .reginfo       0x0000000000000000       0x18 networking/libiproute/lib.a(ll_types.o)
 .pdr           0x0000000000000000       0x20 networking/libiproute/lib.a(ll_types.o)
 .text          0x0000000000000000        0x0 networking/libiproute/lib.a(rt_names.o)
 .data          0x0000000000000000        0x0 networking/libiproute/lib.a(rt_names.o)
 .bss           0x0000000000000000        0x0 networking/libiproute/lib.a(rt_names.o)
 .reginfo       0x0000000000000000       0x18 networking/libiproute/lib.a(rt_names.o)
 .pdr           0x0000000000000000      0x160 networking/libiproute/lib.a(rt_names.o)
 .text.rtnl_rtdsfield_initialize
                0x0000000000000000       0x90 networking/libiproute/lib.a(rt_names.o)
 .text.rtnl_dsfield_a2n
                0x0000000000000000      0x17c networking/libiproute/lib.a(rt_names.o)
 .text.rtnl_rtrealm_a2n
                0x0000000000000000      0x1c4 networking/libiproute/lib.a(rt_names.o)
 .text.rtnl_dsfield_n2a
                0x0000000000000000       0xc4 networking/libiproute/lib.a(rt_names.o)
 .text.rtnl_rtprot_initialize
                0x0000000000000000       0xa0 networking/libiproute/lib.a(rt_names.o)
 .text.rtnl_rtprot_a2n
                0x0000000000000000      0x17c networking/libiproute/lib.a(rt_names.o)
 .text.rtnl_rtprot_n2a
                0x0000000000000000       0xb4 networking/libiproute/lib.a(rt_names.o)
 .bss.res.6596  0x0000000000000000        0x4 networking/libiproute/lib.a(rt_names.o)
 .bss.cache.6595
                0x0000000000000000        0x4 networking/libiproute/lib.a(rt_names.o)
 .bss.res.6551  0x0000000000000000        0x4 networking/libiproute/lib.a(rt_names.o)
 .bss.cache.6550
                0x0000000000000000        0x4 networking/libiproute/lib.a(rt_names.o)
 .bss.res.6469  0x0000000000000000        0x4 networking/libiproute/lib.a(rt_names.o)
 .bss.cache.6468
                0x0000000000000000        0x4 networking/libiproute/lib.a(rt_names.o)
 .data.rel.ro.local.init_tab.6448
                0x0000000000000000       0x34 networking/libiproute/lib.a(rt_names.o)
 .bss.rtnl_rtprot_tab
                0x0000000000000000        0x4 networking/libiproute/lib.a(rt_names.o)
 .bss.rtnl_rtrealm_tab
                0x0000000000000000        0x4 networking/libiproute/lib.a(rt_names.o)
 .bss.rtnl_rtdsfield_tab
                0x0000000000000000        0x4 networking/libiproute/lib.a(rt_names.o)
 .text          0x0000000000000000        0x0 procps/lib.a(kill.o)
 .data          0x0000000000000000        0x0 procps/lib.a(kill.o)
 .bss           0x0000000000000000        0x0 procps/lib.a(kill.o)
 .reginfo       0x0000000000000000       0x18 procps/lib.a(kill.o)
 .pdr           0x0000000000000000       0x20 procps/lib.a(kill.o)
 .text          0x0000000000000000        0x0 procps/lib.a(pidof.o)
 .data          0x0000000000000000        0x0 procps/lib.a(pidof.o)
 .bss           0x0000000000000000        0x0 procps/lib.a(pidof.o)
 .reginfo       0x0000000000000000       0x18 procps/lib.a(pidof.o)
 .pdr           0x0000000000000000       0x20 procps/lib.a(pidof.o)
 .text          0x0000000000000000        0x0 procps/lib.a(ps.o)
 .data          0x0000000000000000        0x0 procps/lib.a(ps.o)
 .bss           0x0000000000000000        0x0 procps/lib.a(ps.o)
 .reginfo       0x0000000000000000       0x18 procps/lib.a(ps.o)
 .pdr           0x0000000000000000       0x20 procps/lib.a(ps.o)
 .text          0x0000000000000000        0x0 procps/lib.a(sysctl.o)
 .data          0x0000000000000000        0x0 procps/lib.a(sysctl.o)
 .bss           0x0000000000000000        0x0 procps/lib.a(sysctl.o)
 .reginfo       0x0000000000000000       0x18 procps/lib.a(sysctl.o)
 .pdr           0x0000000000000000       0xc0 procps/lib.a(sysctl.o)
 .text          0x0000000000000000        0x0 procps/lib.a(top.o)
 .data          0x0000000000000000        0x0 procps/lib.a(top.o)
 .bss           0x0000000000000000        0x0 procps/lib.a(top.o)
 .reginfo       0x0000000000000000       0x18 procps/lib.a(top.o)
 .pdr           0x0000000000000000      0x120 procps/lib.a(top.o)
 .text          0x0000000000000000        0x0 procps/lib.a(uptime.o)
 .data          0x0000000000000000        0x0 procps/lib.a(uptime.o)
 .bss           0x0000000000000000        0x0 procps/lib.a(uptime.o)
 .reginfo       0x0000000000000000       0x18 procps/lib.a(uptime.o)
 .pdr           0x0000000000000000       0x20 procps/lib.a(uptime.o)
 .text          0x0000000000000000        0x0 shell/lib.a(ash.o)
 .data          0x0000000000000000        0x0 shell/lib.a(ash.o)
 .bss           0x0000000000000000        0x0 shell/lib.a(ash.o)
 .reginfo       0x0000000000000000       0x18 shell/lib.a(ash.o)
 .pdr           0x0000000000000000     0x18a0 shell/lib.a(ash.o)
 .text          0x0000000000000000        0x0 sysklogd/lib.a(logger.o)
 .data          0x0000000000000000        0x0 sysklogd/lib.a(logger.o)
 .bss           0x0000000000000000        0x0 sysklogd/lib.a(logger.o)
 .reginfo       0x0000000000000000       0x18 sysklogd/lib.a(logger.o)
 .pdr           0x0000000000000000       0x40 sysklogd/lib.a(logger.o)
 .text          0x0000000000000000        0x0 sysklogd/lib.a(syslogd.o)
 .data          0x0000000000000000        0x0 sysklogd/lib.a(syslogd.o)
 .bss           0x0000000000000000        0x0 sysklogd/lib.a(syslogd.o)
 .reginfo       0x0000000000000000       0x18 sysklogd/lib.a(syslogd.o)
 .pdr           0x0000000000000000       0x80 sysklogd/lib.a(syslogd.o)
 .text          0x0000000000000000        0x0 util-linux/lib.a(dmesg.o)
 .data          0x0000000000000000        0x0 util-linux/lib.a(dmesg.o)
 .bss           0x0000000000000000        0x0 util-linux/lib.a(dmesg.o)
 .reginfo       0x0000000000000000       0x18 util-linux/lib.a(dmesg.o)
 .pdr           0x0000000000000000       0x20 util-linux/lib.a(dmesg.o)
 .text          0x0000000000000000        0x0 util-linux/lib.a(hexdump.o)
 .data          0x0000000000000000        0x0 util-linux/lib.a(hexdump.o)
 .bss           0x0000000000000000        0x0 util-linux/lib.a(hexdump.o)
 .reginfo       0x0000000000000000       0x18 util-linux/lib.a(hexdump.o)
 .pdr           0x0000000000000000       0x20 util-linux/lib.a(hexdump.o)
 .text          0x0000000000000000        0x0 util-linux/lib.a(ipcs.o)
 .data          0x0000000000000000        0x0 util-linux/lib.a(ipcs.o)
 .bss           0x0000000000000000        0x0 util-linux/lib.a(ipcs.o)
 .reginfo       0x0000000000000000       0x18 util-linux/lib.a(ipcs.o)
 .pdr           0x0000000000000000       0x40 util-linux/lib.a(ipcs.o)
 .text          0x0000000000000000        0x0 util-linux/lib.a(mount.o)
 .data          0x0000000000000000        0x0 util-linux/lib.a(mount.o)
 .bss           0x0000000000000000        0x0 util-linux/lib.a(mount.o)
 .reginfo       0x0000000000000000       0x18 util-linux/lib.a(mount.o)
 .pdr           0x0000000000000000       0xa0 util-linux/lib.a(mount.o)
 .text          0x0000000000000000        0x0 util-linux/lib.a(umount.o)
 .data          0x0000000000000000        0x0 util-linux/lib.a(umount.o)
 .bss           0x0000000000000000        0x0 util-linux/lib.a(umount.o)
 .reginfo       0x0000000000000000       0x18 util-linux/lib.a(umount.o)
 .pdr           0x0000000000000000       0x20 util-linux/lib.a(umount.o)
 .text          0x0000000000000000        0x0 libbb/lib.a(create_icmp6_socket.o)
 .data          0x0000000000000000        0x0 libbb/lib.a(create_icmp6_socket.o)
 .bss           0x0000000000000000        0x0 libbb/lib.a(create_icmp6_socket.o)
 .reginfo       0x0000000000000000       0x18 libbb/lib.a(create_icmp6_socket.o)
 .pdr           0x0000000000000000       0x20 libbb/lib.a(create_icmp6_socket.o)
 .text          0x0000000000000000        0x0 libbb/lib.a(create_icmp_socket.o)
 .data          0x0000000000000000        0x0 libbb/lib.a(create_icmp_socket.o)
 .bss           0x0000000000000000        0x0 libbb/lib.a(create_icmp_socket.o)
 .reginfo       0x0000000000000000       0x18 libbb/lib.a(create_icmp_socket.o)
 .pdr           0x0000000000000000       0x20 libbb/lib.a(create_icmp_socket.o)
 .text          0x0000000000000000        0x0 libbb/lib.a(dump.o)
 .data          0x0000000000000000        0x0 libbb/lib.a(dump.o)
 .bss           0x0000000000000000        0x0 libbb/lib.a(dump.o)
 .reginfo       0x0000000000000000       0x18 libbb/lib.a(dump.o)
 .pdr           0x0000000000000000       0x80 libbb/lib.a(dump.o)
 .text          0x0000000000000000        0x0 libbb/lib.a(find_pid_by_name.o)
 .data          0x0000000000000000        0x0 libbb/lib.a(find_pid_by_name.o)
 .bss           0x0000000000000000        0x0 libbb/lib.a(find_pid_by_name.o)
 .reginfo       0x0000000000000000       0x18 libbb/lib.a(find_pid_by_name.o)
 .pdr           0x0000000000000000       0x40 libbb/lib.a(find_pid_by_name.o)
 .text          0x0000000000000000        0x0 libbb/lib.a(herror_msg_and_die.o)
 .data          0x0000000000000000        0x0 libbb/lib.a(herror_msg_and_die.o)
 .bss           0x0000000000000000        0x0 libbb/lib.a(herror_msg_and_die.o)
 .reginfo       0x0000000000000000       0x18 libbb/lib.a(herror_msg_and_die.o)
 .pdr           0x0000000000000000       0x20 libbb/lib.a(herror_msg_and_die.o)
 .text          0x0000000000000000        0x0 libbb/lib.a(inet_common.o)
 .data          0x0000000000000000        0x0 libbb/lib.a(inet_common.o)
 .bss           0x0000000000000000        0x0 libbb/lib.a(inet_common.o)
 .reginfo       0x0000000000000000       0x18 libbb/lib.a(inet_common.o)
 .pdr           0x0000000000000000       0x80 libbb/lib.a(inet_common.o)
 .text          0x0000000000000000        0x0 libbb/lib.a(lineedit.o)
 .data          0x0000000000000000        0x0 libbb/lib.a(lineedit.o)
 .bss           0x0000000000000000        0x0 libbb/lib.a(lineedit.o)
 .reginfo       0x0000000000000000       0x18 libbb/lib.a(lineedit.o)
 .pdr           0x0000000000000000      0x220 libbb/lib.a(lineedit.o)
 .text          0x0000000000000000        0x0 libbb/lib.a(loop.o)
 .data          0x0000000000000000        0x0 libbb/lib.a(loop.o)
 .bss           0x0000000000000000        0x0 libbb/lib.a(loop.o)
 .reginfo       0x0000000000000000       0x18 libbb/lib.a(loop.o)
 .pdr           0x0000000000000000       0x60 libbb/lib.a(loop.o)
 .text.query_loop
                0x0000000000000000       0xa8 libbb/lib.a(loop.o)
 .text          0x0000000000000000        0x0 libbb/lib.a(match_fstype.o)
 .data          0x0000000000000000        0x0 libbb/lib.a(match_fstype.o)
 .bss           0x0000000000000000        0x0 libbb/lib.a(match_fstype.o)
 .reginfo       0x0000000000000000       0x18 libbb/lib.a(match_fstype.o)
 .pdr           0x0000000000000000       0x20 libbb/lib.a(match_fstype.o)
 .text          0x0000000000000000        0x0 libbb/lib.a(procps.o)
 .data          0x0000000000000000        0x0 libbb/lib.a(procps.o)
 .bss           0x0000000000000000        0x0 libbb/lib.a(procps.o)
 .reginfo       0x0000000000000000       0x18 libbb/lib.a(procps.o)
 .pdr           0x0000000000000000      0x180 libbb/lib.a(procps.o)
 .text.get_cached_groupname
                0x0000000000000000       0x28 libbb/lib.a(procps.o)
 .text          0x0000000000000000        0x0 libbb/lib.a(simplify_path.o)
 .data          0x0000000000000000        0x0 libbb/lib.a(simplify_path.o)
 .bss           0x0000000000000000        0x0 libbb/lib.a(simplify_path.o)
 .reginfo       0x0000000000000000       0x18 libbb/lib.a(simplify_path.o)
 .pdr           0x0000000000000000       0x20 libbb/lib.a(simplify_path.o)
 .text          0x0000000000000000        0x0 libbb/lib.a(time.o)
 .data          0x0000000000000000        0x0 libbb/lib.a(time.o)
 .bss           0x0000000000000000        0x0 libbb/lib.a(time.o)
 .reginfo       0x0000000000000000       0x18 libbb/lib.a(time.o)
 .pdr           0x0000000000000000       0x80 libbb/lib.a(time.o)
 .text.monotonic_sec
                0x0000000000000000       0x40 libbb/lib.a(time.o)
 .text.monotonic_ns
                0x0000000000000000       0x6c libbb/lib.a(time.o)
 .text          0x0000000000000000        0x0 libbb/lib.a(trim.o)
 .data          0x0000000000000000        0x0 libbb/lib.a(trim.o)
 .bss           0x0000000000000000        0x0 libbb/lib.a(trim.o)
 .reginfo       0x0000000000000000       0x18 libbb/lib.a(trim.o)
 .pdr           0x0000000000000000       0x20 libbb/lib.a(trim.o)
 .text          0x0000000000000000        0x0 libbb/lib.a(u_signal_names.o)
 .data          0x0000000000000000        0x0 libbb/lib.a(u_signal_names.o)
 .bss           0x0000000000000000        0x0 libbb/lib.a(u_signal_names.o)
 .reginfo       0x0000000000000000       0x18 libbb/lib.a(u_signal_names.o)
 .pdr           0x0000000000000000       0x40 libbb/lib.a(u_signal_names.o)
 .text          0x0000000000000000        0x0 libbb/lib.a(xconnect.o)
 .data          0x0000000000000000        0x0 libbb/lib.a(xconnect.o)
 .bss           0x0000000000000000        0x0 libbb/lib.a(xconnect.o)
 .reginfo       0x0000000000000000       0x18 libbb/lib.a(xconnect.o)
 .pdr           0x0000000000000000      0x320 libbb/lib.a(xconnect.o)
 .text.xmalloc_sockaddr2hostonly_noport
                0x0000000000000000       0x20 libbb/lib.a(xconnect.o)
 .text.xmalloc_sockaddr2host
                0x0000000000000000       0x20 libbb/lib.a(xconnect.o)
 .text.xsocket_type
                0x0000000000000000       0xcc libbb/lib.a(xconnect.o)
 .text.xsocket_stream
                0x0000000000000000       0x1c libbb/lib.a(xconnect.o)
 .text.host2sockaddr
                0x0000000000000000       0x20 libbb/lib.a(xconnect.o)
 .text.host_and_af2sockaddr
                0x0000000000000000       0x20 libbb/lib.a(xconnect.o)
 .text.setsockopt_reuseaddr
                0x0000000000000000       0x44 libbb/lib.a(xconnect.o)
 .text.create_and_connect_stream_or_die
                0x0000000000000000       0xb4 libbb/lib.a(xconnect.o)
 .text.create_and_bind_or_die
                0x0000000000000000      0x10c libbb/lib.a(xconnect.o)
 .text.create_and_bind_dgram_or_die
                0x0000000000000000       0x20 libbb/lib.a(xconnect.o)
 .text.create_and_bind_stream_or_die
                0x0000000000000000       0x20 libbb/lib.a(xconnect.o)
 .data          0x0000000000000000        0x0 /opt/toolchains/buildroot-be-gcc434-2013-0107/usr/bin/../lib/gcc/mips-unknown-linux-uclibc/4.3.4/libgcc.a(_lshrdi3.o)
 .bss           0x0000000000000000        0x0 /opt/toolchains/buildroot-be-gcc434-2013-0107/usr/bin/../lib/gcc/mips-unknown-linux-uclibc/4.3.4/libgcc.a(_lshrdi3.o)
 .reginfo       0x0000000000000000       0x18 /opt/toolchains/buildroot-be-gcc434-2013-0107/usr/bin/../lib/gcc/mips-unknown-linux-uclibc/4.3.4/libgcc.a(_lshrdi3.o)
 .pdr           0x0000000000000000       0x20 /opt/toolchains/buildroot-be-gcc434-2013-0107/usr/bin/../lib/gcc/mips-unknown-linux-uclibc/4.3.4/libgcc.a(_lshrdi3.o)
 .data          0x0000000000000000        0x0 /opt/toolchains/buildroot-be-gcc434-2013-0107/usr/bin/../lib/gcc/mips-unknown-linux-uclibc/4.3.4/libgcc.a(_udivdi3.o)
 .bss           0x0000000000000000        0x0 /opt/toolchains/buildroot-be-gcc434-2013-0107/usr/bin/../lib/gcc/mips-unknown-linux-uclibc/4.3.4/libgcc.a(_udivdi3.o)
 .reginfo       0x0000000000000000       0x18 /opt/toolchains/buildroot-be-gcc434-2013-0107/usr/bin/../lib/gcc/mips-unknown-linux-uclibc/4.3.4/libgcc.a(_udivdi3.o)
 .pdr           0x0000000000000000       0x20 /opt/toolchains/buildroot-be-gcc434-2013-0107/usr/bin/../lib/gcc/mips-unknown-linux-uclibc/4.3.4/libgcc.a(_udivdi3.o)
 .data          0x0000000000000000        0x0 /opt/toolchains/buildroot-be-gcc434-2013-0107/usr/bin/../lib/gcc/mips-unknown-linux-uclibc/4.3.4/libgcc.a(_sf_to_df.o)
 .bss           0x0000000000000000        0x0 /opt/toolchains/buildroot-be-gcc434-2013-0107/usr/bin/../lib/gcc/mips-unknown-linux-uclibc/4.3.4/libgcc.a(_sf_to_df.o)
 .reginfo       0x0000000000000000       0x18 /opt/toolchains/buildroot-be-gcc434-2013-0107/usr/bin/../lib/gcc/mips-unknown-linux-uclibc/4.3.4/libgcc.a(_sf_to_df.o)
 .pdr           0x0000000000000000       0x20 /opt/toolchains/buildroot-be-gcc434-2013-0107/usr/bin/../lib/gcc/mips-unknown-linux-uclibc/4.3.4/libgcc.a(_sf_to_df.o)
 .data          0x0000000000000000        0x0 /opt/toolchains/buildroot-be-gcc434-2013-0107/usr/bin/../lib/gcc/mips-unknown-linux-uclibc/4.3.4/libgcc.a(_make_df.o)
 .bss           0x0000000000000000        0x0 /opt/toolchains/buildroot-be-gcc434-2013-0107/usr/bin/../lib/gcc/mips-unknown-linux-uclibc/4.3.4/libgcc.a(_make_df.o)
 .reginfo       0x0000000000000000       0x18 /opt/toolchains/buildroot-be-gcc434-2013-0107/usr/bin/../lib/gcc/mips-unknown-linux-uclibc/4.3.4/libgcc.a(_make_df.o)
 .pdr           0x0000000000000000       0x20 /opt/toolchains/buildroot-be-gcc434-2013-0107/usr/bin/../lib/gcc/mips-unknown-linux-uclibc/4.3.4/libgcc.a(_make_df.o)
 .text          0x0000000000000000        0x0 /opt/toolchains/buildroot-be-gcc434-2013-0107/usr/bin/../lib/gcc/mips-unknown-linux-uclibc/4.3.4/libgcc.a(_clz.o)
 .data          0x0000000000000000        0x0 /opt/toolchains/buildroot-be-gcc434-2013-0107/usr/bin/../lib/gcc/mips-unknown-linux-uclibc/4.3.4/libgcc.a(_clz.o)
 .bss           0x0000000000000000        0x0 /opt/toolchains/buildroot-be-gcc434-2013-0107/usr/bin/../lib/gcc/mips-unknown-linux-uclibc/4.3.4/libgcc.a(_clz.o)
 .reginfo       0x0000000000000000       0x18 /opt/toolchains/buildroot-be-gcc434-2013-0107/usr/bin/../lib/gcc/mips-unknown-linux-uclibc/4.3.4/libgcc.a(_clz.o)
 .data          0x0000000000000000        0x0 /opt/toolchains/buildroot-be-gcc434-2013-0107/usr/bin/../lib/gcc/mips-unknown-linux-uclibc/4.3.4/libgcc.a(_unpack_sf.o)
 .bss           0x0000000000000000        0x0 /opt/toolchains/buildroot-be-gcc434-2013-0107/usr/bin/../lib/gcc/mips-unknown-linux-uclibc/4.3.4/libgcc.a(_unpack_sf.o)
 .reginfo       0x0000000000000000       0x18 /opt/toolchains/buildroot-be-gcc434-2013-0107/usr/bin/../lib/gcc/mips-unknown-linux-uclibc/4.3.4/libgcc.a(_unpack_sf.o)
 .pdr           0x0000000000000000       0x20 /opt/toolchains/buildroot-be-gcc434-2013-0107/usr/bin/../lib/gcc/mips-unknown-linux-uclibc/4.3.4/libgcc.a(_unpack_sf.o)
 .data          0x0000000000000000        0x0 /opt/toolchains/buildroot-be-gcc434-2013-0107/usr/bin/../lib/gcc/mips-unknown-linux-uclibc/4.3.4/libgcc.a(_pack_df.o)
 .bss           0x0000000000000000        0x0 /opt/toolchains/buildroot-be-gcc434-2013-0107/usr/bin/../lib/gcc/mips-unknown-linux-uclibc/4.3.4/libgcc.a(_pack_df.o)
 .reginfo       0x0000000000000000       0x18 /opt/toolchains/buildroot-be-gcc434-2013-0107/usr/bin/../lib/gcc/mips-unknown-linux-uclibc/4.3.4/libgcc.a(_pack_df.o)
 .pdr           0x0000000000000000       0x20 /opt/toolchains/buildroot-be-gcc434-2013-0107/usr/bin/../lib/gcc/mips-unknown-linux-uclibc/4.3.4/libgcc.a(_pack_df.o)
 .data          0x0000000000000000        0x0 /opt/toolchains/buildroot-be-gcc434-2013-0107/usr/bin/../lib/gcc/mips-unknown-linux-uclibc/4.3.4/libgcc.a(_ashldi3.o)
 .bss           0x0000000000000000        0x0 /opt/toolchains/buildroot-be-gcc434-2013-0107/usr/bin/../lib/gcc/mips-unknown-linux-uclibc/4.3.4/libgcc.a(_ashldi3.o)
 .reginfo       0x0000000000000000       0x18 /opt/toolchains/buildroot-be-gcc434-2013-0107/usr/bin/../lib/gcc/mips-unknown-linux-uclibc/4.3.4/libgcc.a(_ashldi3.o)
 .pdr           0x0000000000000000       0x20 /opt/toolchains/buildroot-be-gcc434-2013-0107/usr/bin/../lib/gcc/mips-unknown-linux-uclibc/4.3.4/libgcc.a(_ashldi3.o)
 .data          0x0000000000000000        0x0 /opt/toolchains/buildroot-be-gcc434-2013-0107/usr/bin/../lib/gcc/mips-unknown-linux-uclibc/4.3.4/libgcc.a(_ucmpdi2.o)
 .bss           0x0000000000000000        0x0 /opt/toolchains/buildroot-be-gcc434-2013-0107/usr/bin/../lib/gcc/mips-unknown-linux-uclibc/4.3.4/libgcc.a(_ucmpdi2.o)
 .reginfo       0x0000000000000000       0x18 /opt/toolchains/buildroot-be-gcc434-2013-0107/usr/bin/../lib/gcc/mips-unknown-linux-uclibc/4.3.4/libgcc.a(_ucmpdi2.o)
 .pdr           0x0000000000000000       0x20 /opt/toolchains/buildroot-be-gcc434-2013-0107/usr/bin/../lib/gcc/mips-unknown-linux-uclibc/4.3.4/libgcc.a(_ucmpdi2.o)
 .data          0x0000000000000000        0x0 /opt/toolchains/buildroot-be-gcc434-2013-0107/usr/bin/../lib/gcc/mips-unknown-linux-uclibc/4.3.4/crtend.o
 .bss           0x0000000000000000        0x0 /opt/toolchains/buildroot-be-gcc434-2013-0107/usr/bin/../lib/gcc/mips-unknown-linux-uclibc/4.3.4/crtend.o
 .reginfo       0x0000000000000000       0x18 /opt/toolchains/buildroot-be-gcc434-2013-0107/usr/bin/../lib/gcc/mips-unknown-linux-uclibc/4.3.4/crtend.o
 .text          0x0000000000000000        0x0 /opt/buildroot-be-gcc434/usr/lib/crtn.o
 .data          0x0000000000000000        0x0 /opt/buildroot-be-gcc434/usr/lib/crtn.o
 .bss           0x0000000000000000        0x0 /opt/buildroot-be-gcc434/usr/lib/crtn.o
 .reginfo       0x0000000000000000       0x18 /opt/buildroot-be-gcc434/usr/lib/crtn.o
 .pdr           0x0000000000000000       0x40 /opt/buildroot-be-gcc434/usr/lib/crtn.o
 .note.GNU-stack
                0x0000000000000000        0x0 /opt/buildroot-be-gcc434/usr/lib/crtn.o

Memory Configuration

Name             Origin             Length             Attributes
*default*        0x0000000000000000 0xffffffffffffffff

Linker script and memory map

LOAD /opt/buildroot-be-gcc434/usr/lib/crt1.o
LOAD /opt/buildroot-be-gcc434/usr/lib/crti.o
LOAD /opt/toolchains/buildroot-be-gcc434-2013-0107/usr/bin/../lib/gcc/mips-unknown-linux-uclibc/4.3.4/crtbegin.o
START GROUP
LOAD applets/built-in.o
LOAD archival/lib.a
LOAD archival/libunarchive/lib.a
LOAD console-tools/lib.a
LOAD coreutils/lib.a
LOAD coreutils/libcoreutils/lib.a
LOAD debianutils/lib.a
LOAD e2fsprogs/lib.a
LOAD editors/lib.a
LOAD findutils/lib.a
LOAD init/lib.a
LOAD ipsvd/lib.a
LOAD libbb/lib.a
LOAD libpwdgrp/lib.a
LOAD loginutils/lib.a
LOAD miscutils/lib.a
LOAD modutils/lib.a
LOAD networking/lib.a
LOAD networking/libiproute/lib.a
LOAD networking/udhcp/lib.a
LOAD procps/lib.a
LOAD runit/lib.a
LOAD selinux/lib.a
LOAD shell/lib.a
LOAD sysklogd/lib.a
LOAD util-linux/lib.a
LOAD archival/built-in.o
LOAD archival/libunarchive/built-in.o
LOAD console-tools/built-in.o
LOAD coreutils/built-in.o
LOAD coreutils/libcoreutils/built-in.o
LOAD debianutils/built-in.o
LOAD e2fsprogs/built-in.o
LOAD editors/built-in.o
LOAD findutils/built-in.o
LOAD init/built-in.o
LOAD ipsvd/built-in.o
LOAD libbb/built-in.o
LOAD libpwdgrp/built-in.o
LOAD loginutils/built-in.o
LOAD miscutils/built-in.o
LOAD modutils/built-in.o
LOAD networking/built-in.o
LOAD networking/libiproute/built-in.o
LOAD networking/udhcp/built-in.o
LOAD procps/built-in.o
LOAD runit/built-in.o
LOAD selinux/built-in.o
LOAD shell/built-in.o
LOAD sysklogd/built-in.o
LOAD util-linux/built-in.o
END GROUP
LOAD /opt/toolchains/buildroot-be-gcc434-2013-0107/usr/bin/../lib/gcc/mips-unknown-linux-uclibc/4.3.4/libgcc.a
LOAD /opt/toolchains/buildroot-be-gcc434-2013-0107/usr/bin/../lib/gcc/mips-unknown-linux-uclibc/4.3.4/../../../../mips-unknown-linux-uclibc/lib/libgcc_s.so
LOAD /opt/buildroot-be-gcc434/usr/lib/libc.so
START GROUP
LOAD /opt/buildroot-be-gcc434/lib//libc.so.0
LOAD /opt/buildroot-be-gcc434/usr/lib//uclibc_nonshared.a
LOAD /opt/buildroot-be-gcc434/lib//ld-uClibc.so.0
END GROUP
LOAD /opt/toolchains/buildroot-be-gcc434-2013-0107/usr/bin/../lib/gcc/mips-unknown-linux-uclibc/4.3.4/libgcc.a
LOAD /opt/toolchains/buildroot-be-gcc434-2013-0107/usr/bin/../lib/gcc/mips-unknown-linux-uclibc/4.3.4/../../../../mips-unknown-linux-uclibc/lib/libgcc_s.so
LOAD /opt/toolchains/buildroot-be-gcc434-2013-0107/usr/bin/../lib/gcc/mips-unknown-linux-uclibc/4.3.4/crtend.o
LOAD /opt/buildroot-be-gcc434/usr/lib/crtn.o
                0x0000000000400000                PROVIDE (__executable_start, 0x400000)
                0x0000000000400134                . = (0x400000 + SIZEOF_HEADERS)

.interp         0x0000000000400134       0x14
 *(.interp)
 .interp        0x0000000000400134       0x14 /opt/buildroot-be-gcc434/usr/lib/crt1.o

.reginfo
 *(.reginfo)

.note.gnu.build-id
 *(.note.gnu.build-id)

.dynamic        0x0000000000400148       0xe0
 *(.dynamic)
 .dynamic       0x0000000000400148       0xe0 /opt/buildroot-be-gcc434/usr/lib/crt1.o
                0x0000000000400148                _DYNAMIC

.hash           0x0000000000400228      0xc3c
 *(.hash)
 .hash          0x0000000000400228      0xc3c /opt/buildroot-be-gcc434/usr/lib/crt1.o

.gnu.hash
 *(.gnu.hash)

.dynsym         0x0000000000400e64     0x2060
 *(.dynsym)
 .dynsym        0x0000000000400e64     0x2060 /opt/buildroot-be-gcc434/usr/lib/crt1.o

.dynstr         0x0000000000402ec4     0x1582
 *(.dynstr)
 .dynstr        0x0000000000402ec4     0x1582 /opt/buildroot-be-gcc434/usr/lib/crt1.o

.gnu.version    0x0000000000404446      0x40c
 *(.gnu.version)
 .gnu.version   0x0000000000404446      0x40c /opt/buildroot-be-gcc434/usr/lib/crt1.o

.gnu.version_d  0x0000000000404854        0x0 load address 0x0000000000404852
 *(.gnu.version_d)
 .gnu.version_d
                0x0000000000000000        0x0 /opt/buildroot-be-gcc434/usr/lib/crt1.o

.gnu.version_r  0x0000000000404854       0x20
 *(.gnu.version_r)
 .gnu.version_r
                0x0000000000404854       0x20 /opt/buildroot-be-gcc434/usr/lib/crt1.o

.rel.dyn        0x0000000000404874        0x0
 *(.rel.init)
 *(.rel.text .rel.text.* .rel.gnu.linkonce.t.*)
 *(.rel.fini)
 *(.rel.rodata .rel.rodata.* .rel.gnu.linkonce.r.*)
 *(.rel.data.rel.ro* .rel.gnu.linkonce.d.rel.ro.*)
 *(.rel.data .rel.data.* .rel.gnu.linkonce.d.*)
 *(.rel.tdata .rel.tdata.* .rel.gnu.linkonce.td.*)
 *(.rel.tbss .rel.tbss.* .rel.gnu.linkonce.tb.*)
 *(.rel.ctors)
 *(.rel.dtors)
 *(.rel.got)
 *(.rel.dyn)
 .rel.dyn       0x0000000000000000        0x0 /opt/buildroot-be-gcc434/usr/lib/crt1.o
 *(.rel.sdata .rel.sdata.* .rel.gnu.linkonce.s.*)
 *(.rel.sbss .rel.sbss.* .rel.gnu.linkonce.sb.*)
 *(.rel.sdata2 .rel.sdata2.* .rel.gnu.linkonce.s2.*)
 *(.rel.sbss2 .rel.sbss2.* .rel.gnu.linkonce.sb2.*)
 *(.rel.bss .rel.bss.* .rel.gnu.linkonce.b.*)
 .rel.bss       0x0000000000000000        0x0 /opt/buildroot-be-gcc434/usr/lib/crt1.o
                0x0000000000404874                PROVIDE (__rel_iplt_start, .)
 *(.rel.iplt)
                0x0000000000404874                PROVIDE (__rel_iplt_end, .)
                0x0000000000404874                PROVIDE (__rela_iplt_start, .)
                0x0000000000404874                PROVIDE (__rela_iplt_end, .)

.rela.dyn       0x0000000000404874        0x0
 *(.rela.init)
 *(.rela.text .rela.text.* .rela.gnu.linkonce.t.*)
 *(.rela.fini)
 *(.rela.rodata .rela.rodata.* .rela.gnu.linkonce.r.*)
 *(.rela.data .rela.data.* .rela.gnu.linkonce.d.*)
 *(.rela.tdata .rela.tdata.* .rela.gnu.linkonce.td.*)
 *(.rela.tbss .rela.tbss.* .rela.gnu.linkonce.tb.*)
 *(.rela.ctors)
 *(.rela.dtors)
 *(.rela.got)
 *(.rela.sdata .rela.sdata.* .rela.gnu.linkonce.s.*)
 *(.rela.sbss .rela.sbss.* .rela.gnu.linkonce.sb.*)
 *(.rela.sdata2 .rela.sdata2.* .rela.gnu.linkonce.s2.*)
 *(.rela.sbss2 .rela.sbss2.* .rela.gnu.linkonce.sb2.*)
 *(.rela.bss .rela.bss.* .rela.gnu.linkonce.b.*)
                0x0000000000404874                PROVIDE (__rel_iplt_start, .)
                0x0000000000404874                PROVIDE (__rel_iplt_end, .)
                0x0000000000404874                PROVIDE (__rela_iplt_start, .)
 *(.rela.iplt)
                0x0000000000404874                PROVIDE (__rela_iplt_end, .)

.rel.plt        0x0000000000404874        0x0
 *(.rel.plt)
 .rel.plt       0x0000000000000000        0x0 /opt/buildroot-be-gcc434/usr/lib/crt1.o

.rela.plt
 *(.rela.plt)

.init           0x0000000000404874       0x80
 *(.init)
 .init          0x0000000000404874       0x1c /opt/buildroot-be-gcc434/usr/lib/crti.o
                0x0000000000404874                _init
 .init          0x0000000000404890       0x2c /opt/toolchains/buildroot-be-gcc434-2013-0107/usr/bin/../lib/gcc/mips-unknown-linux-uclibc/4.3.4/crtbegin.o
 .init          0x00000000004048bc       0x2c /opt/toolchains/buildroot-be-gcc434-2013-0107/usr/bin/../lib/gcc/mips-unknown-linux-uclibc/4.3.4/crtend.o
 .init          0x00000000004048e8        0xc /opt/buildroot-be-gcc434/usr/lib/crtn.o

.plt            0x00000000004048f4        0x0
 *(.plt)
 .plt           0x0000000000000000        0x0 /opt/buildroot-be-gcc434/usr/lib/crt1.o

.iplt
 *(.iplt)

.text           0x0000000000404900    0x4ac80
                0x0000000000404900                _ftext = .
 *(.text.unlikely .text.*_unlikely)
 *(.text .stub .text.* .gnu.linkonce.t.*)
 .text          0x0000000000404900       0x60 /opt/buildroot-be-gcc434/usr/lib/crt1.o
                0x0000000000404900                __start
 .text          0x0000000000404960      0x150 /opt/toolchains/buildroot-be-gcc434-2013-0107/usr/bin/../lib/gcc/mips-unknown-linux-uclibc/4.3.4/crtbegin.o
 .text.applet_name_compare
                0x0000000000404ab0       0x20 applets/built-in.o
 .text.find_applet_by_name
                0x0000000000404ad0       0x48 applets/built-in.o
                0x0000000000404ad0                find_applet_by_name
 .text.bb_show_usage
                0x0000000000404b18       0x28 applets/built-in.o
                0x0000000000404b18                bb_show_usage
 .text.run_current_applet_and_exit
                0x0000000000404b40      0x158 applets/built-in.o
                0x0000000000404b40                run_current_applet_and_exit
 .text.run_applet_and_exit
                0x0000000000404c98      0x22c applets/built-in.o
                0x0000000000404c98                run_applet_and_exit
 .text.main     0x0000000000404ec4       0xc4 applets/built-in.o
                0x0000000000404ec4                main
 .text.basename_main
                0x0000000000404f88       0xfc coreutils/lib.a(basename.o)
                0x0000000000404f88                basename_main
 .text.bb_cat   0x0000000000405084      0x104 coreutils/lib.a(cat.o)
                0x0000000000405084                bb_cat
 .text.cat_main
                0x0000000000405188       0x60 coreutils/lib.a(cat.o)
                0x0000000000405188                cat_main
 .text.chmod_main
                0x00000000004051e8      0x174 coreutils/lib.a(chmod.o)
                0x00000000004051e8                chmod_main
 .text.fileAction
                0x000000000040535c       0xfc coreutils/lib.a(chmod.o)
 .text.cp_main  0x0000000000405458      0x1ec coreutils/lib.a(cp.o)
                0x0000000000405458                cp_main
 .text.maybe_set_utc
                0x0000000000405644       0x34 coreutils/lib.a(date.o)
 .text.date_main
                0x0000000000405678      0x57c coreutils/lib.a(date.o)
                0x0000000000405678                date_main
 .text.kscale   0x0000000000405bf4       0x28 coreutils/lib.a(df.o)
 .text.df_main  0x0000000000405c1c      0x354 coreutils/lib.a(df.o)
                0x0000000000405c1c                df_main
 .text.bb_echo  0x0000000000405f70      0x244 coreutils/lib.a(echo.o)
                0x0000000000405f70                bb_echo
 .text.echo_main
                0x00000000004061b4       0x1c coreutils/lib.a(echo.o)
                0x00000000004061b4                echo_main
 .text.null     0x00000000004061d0       0x54 coreutils/lib.a(expr.o)
 .text.int_value
                0x0000000000406224       0x48 coreutils/lib.a(expr.o)
 .text.tostring
                0x000000000040626c       0x64 coreutils/lib.a(expr.o)
 .text.str_value
                0x00000000004062d0       0x6c coreutils/lib.a(expr.o)
 .text.docolon  0x000000000040633c      0x1b0 coreutils/lib.a(expr.o)
 .text.toarith  0x00000000004064ec       0xac coreutils/lib.a(expr.o)
 .text.arithmetic_common
                0x0000000000406598      0x124 coreutils/lib.a(expr.o)
 .text.freev    0x00000000004066bc       0x5c coreutils/lib.a(expr.o)
 .text.nextarg  0x0000000000406718       0x60 coreutils/lib.a(expr.o)
 .text.eval     0x0000000000406778      0x114 coreutils/lib.a(expr.o)
 .text.eval6    0x000000000040688c      0x4ac coreutils/lib.a(expr.o)
 .text.eval5    0x0000000000406d38      0x120 coreutils/lib.a(expr.o)
 .text.eval4    0x0000000000406e58      0x174 coreutils/lib.a(expr.o)
 .text.eval3    0x0000000000406fcc      0x158 coreutils/lib.a(expr.o)
 .text.eval2    0x0000000000407124      0x2a4 coreutils/lib.a(expr.o)
 .text.eval1    0x00000000004073c8      0x154 coreutils/lib.a(expr.o)
 .text.expr_main
                0x000000000040751c       0xec coreutils/lib.a(expr.o)
                0x000000000040751c                expr_main
 .text.printf_full
                0x0000000000407608       0x70 coreutils/lib.a(id.o)
 .text.id_main  0x0000000000407678      0x33c coreutils/lib.a(id.o)
                0x0000000000407678                id_main
 .text.ln_main  0x00000000004079b4      0x370 coreutils/lib.a(ln.o)
                0x00000000004079b4                ln_main
 .text.count_dirs
                0x0000000000407d24       0x9c coreutils/lib.a(ls.o)
 .text.my_stat  0x0000000000407dc0       0xdc coreutils/lib.a(ls.o)
 .text.dnalloc  0x0000000000407e9c       0x2c coreutils/lib.a(ls.o)
 .text.splitdnarray
                0x0000000000407ec8      0x174 coreutils/lib.a(ls.o)
 .text.showfiles
                0x000000000040803c      0x664 coreutils/lib.a(ls.o)
 .text.dnsort   0x00000000004086a0       0x20 coreutils/lib.a(ls.o)
 .text.sortcmp  0x00000000004086c0      0x110 coreutils/lib.a(ls.o)
 .text.ls_main  0x00000000004087d0      0x6d4 coreutils/lib.a(ls.o)
                0x00000000004087d0                ls_main
 .text.md5_sha1_sum_main
                0x0000000000408ea4      0x234 coreutils/lib.a(md5_sha1_sum.o)
                0x0000000000408ea4                md5_sha1_sum_main
 .text.mkdir_main
                0x00000000004090d8      0x12c coreutils/lib.a(mkdir.o)
                0x00000000004090d8                mkdir_main
 .text.mknod_main
                0x0000000000409204      0x184 coreutils/lib.a(mknod.o)
                0x0000000000409204                mknod_main
 .text.mv_main  0x0000000000409388      0x38c coreutils/lib.a(mv.o)
                0x0000000000409388                mv_main
 .text.nice_main
                0x0000000000409714      0x188 coreutils/lib.a(nice.o)
                0x0000000000409714                nice_main
 .text.multiconvert
                0x000000000040989c       0xcc coreutils/lib.a(printf.o)
 .text.my_xstrtoul
                0x0000000000409968       0x44 coreutils/lib.a(printf.o)
 .text.my_xstrtol
                0x00000000004099ac       0x44 coreutils/lib.a(printf.o)
 .text.my_xstrtod
                0x00000000004099f0       0x48 coreutils/lib.a(printf.o)
 .text.conv_strtoul
                0x0000000000409a38       0x48 coreutils/lib.a(printf.o)
 .text.print_direc
                0x0000000000409a80      0x338 coreutils/lib.a(printf.o)
 .text.printf_main
                0x0000000000409db8      0x5c4 coreutils/lib.a(printf.o)
                0x0000000000409db8                printf_main
 .text.conv_strtol
                0x000000000040a37c       0x48 coreutils/lib.a(printf.o)
 .text.conv_strtod
                0x000000000040a3c4       0x70 coreutils/lib.a(printf.o)
 .text.pwd_main
                0x000000000040a434       0x94 coreutils/lib.a(pwd.o)
                0x000000000040a434                pwd_main
 .text.rm_main  0x000000000040a4c8      0x194 coreutils/lib.a(rm.o)
                0x000000000040a4c8                rm_main
 .text.sleep_main
                0x000000000040a65c       0x84 coreutils/lib.a(sleep.o)
                0x000000000040a65c                sleep_main
 .text.compare_keys
                0x000000000040a6e0      0x108 coreutils/lib.a(sort.o)
 .text.sort_main
                0x000000000040a7e8      0x2f4 coreutils/lib.a(sort.o)
                0x000000000040a7e8                sort_main
 .text.mode_type_flag
                0x000000000040aadc       0x40 coreutils/lib.a(stty.o)
 .text.set_mode
                0x000000000040ab1c      0x578 coreutils/lib.a(stty.o)
 .text.find_mode
                0x000000000040b094       0x98 coreutils/lib.a(stty.o)
 .text.find_control
                0x000000000040b12c       0x98 coreutils/lib.a(stty.o)
 .text.set_control_char_or_die
                0x000000000040b1c4      0x130 coreutils/lib.a(stty.o)
 .text.find_param
                0x000000000040b2f4       0x60 coreutils/lib.a(stty.o)
 .text.perror_on_device
                0x000000000040b354       0x20 coreutils/lib.a(stty.o)
 .text.wrapf    0x000000000040b374      0x1c4 coreutils/lib.a(stty.o)
 .text.display_window_size
                0x000000000040b538       0xe8 coreutils/lib.a(stty.o)
 .text.set_window_size
                0x000000000040b620       0xf8 coreutils/lib.a(stty.o)
 .text.display_speed
                0x000000000040b718       0xec coreutils/lib.a(stty.o)
 .text.do_display
                0x000000000040b804      0x354 coreutils/lib.a(stty.o)
 .text.recover_mode
                0x000000000040bb58      0x144 coreutils/lib.a(stty.o)
 .text.set_speed_or_die
                0x000000000040bc9c       0xbc coreutils/lib.a(stty.o)
 .text.perror_on_device_and_die
                0x000000000040bd58       0x2c coreutils/lib.a(stty.o)
 .text.stty_main
                0x000000000040bd84      0x870 coreutils/lib.a(stty.o)
                0x000000000040bd84                stty_main
 .text.display_recoverable
                0x000000000040c5f4      0x11c coreutils/lib.a(stty.o)
 .text.sync_main
                0x000000000040c710       0x54 coreutils/lib.a(sync.o)
                0x000000000040c710                sync_main
 .text.eat_num  0x000000000040c764       0x4c coreutils/lib.a(tail.o)
 .text.tail_xprint_header
                0x000000000040c7b0       0x58 coreutils/lib.a(tail.o)
 .text.tail_read
                0x000000000040c808      0x100 coreutils/lib.a(tail.o)
 .text.tail_main
                0x000000000040c908      0x5dc coreutils/lib.a(tail.o)
                0x000000000040c908                tail_main
 .text.t_lex    0x000000000040cee4       0xa4 coreutils/lib.a(test.o)
 .text.syntax   0x000000000040cf88       0x7c coreutils/lib.a(test.o)
 .text.getn     0x000000000040d004       0xb8 coreutils/lib.a(test.o)
 .text.binop    0x000000000040d0bc      0x278 coreutils/lib.a(test.o)
 .text.filstat  0x000000000040d334      0x364 coreutils/lib.a(test.o)
 .text.nexpr    0x000000000040d698      0x298 coreutils/lib.a(test.o)
 .text.aexpr    0x000000000040d930       0xd8 coreutils/lib.a(test.o)
 .text.oexpr    0x000000000040da08       0xd8 coreutils/lib.a(test.o)
 .text.test_main
                0x000000000040dae0      0x328 coreutils/lib.a(test.o)
                0x000000000040dae0                test_main
 .text.touch_main
                0x000000000040de08      0x15c coreutils/lib.a(touch.o)
                0x000000000040de08                touch_main
 .text.true_main
                0x000000000040df64        0x8 coreutils/lib.a(true.o)
                0x000000000040df64                true_main
 .text.tty_main
                0x000000000040df6c       0x98 coreutils/lib.a(tty.o)
                0x000000000040df6c                tty_main
 .text.uname_main
                0x000000000040e004      0x208 coreutils/lib.a(uname.o)
                0x000000000040e004                uname_main
 .text.wc_main  0x000000000040e20c      0x3b0 coreutils/lib.a(wc.o)
                0x000000000040e20c                wc_main
 .text.cp_mv_stat2
                0x000000000040e5bc       0xac coreutils/libcoreutils/lib.a(cp_mv_stat.o)
                0x000000000040e5bc                cp_mv_stat2
 .text.cp_mv_stat
                0x000000000040e668       0x20 coreutils/libcoreutils/lib.a(cp_mv_stat.o)
                0x000000000040e668                cp_mv_stat
 .text.getopt_mk_fifo_nod
                0x000000000040e688       0x8c coreutils/libcoreutils/lib.a(getopt_mk_fifo_nod.o)
                0x000000000040e688                getopt_mk_fifo_nod
 .text.which_main
                0x000000000040e714      0x128 debianutils/lib.a(which.o)
                0x000000000040e714                which_main
 .text.cmp_xfopen_input
                0x000000000040e83c       0x54 editors/lib.a(cmp.o)
 .text.cmp_main
                0x000000000040e890      0x398 editors/lib.a(cmp.o)
                0x000000000040e890                cmp_main
 .text.next_tabstop
                0x000000000040ec28       0x3c editors/lib.a(vi.o)
 .text.begin_line
                0x000000000040ec64       0x50 editors/lib.a(vi.o)
 .text.end_line
                0x000000000040ecb4       0x50 editors/lib.a(vi.o)
 .text.prev_line
                0x000000000040ed04       0x84 editors/lib.a(vi.o)
 .text.next_line
                0x000000000040ed88       0x78 editors/lib.a(vi.o)
 .text.end_screen
                0x000000000040ee00       0x84 editors/lib.a(vi.o)
 .text.count_lines
                0x000000000040ee84       0xb4 editors/lib.a(vi.o)
 .text.find_line
                0x000000000040ef38       0x7c editors/lib.a(vi.o)
 .text.dot_left
                0x000000000040efb4       0x50 editors/lib.a(vi.o)
 .text.dot_right
                0x000000000040f004       0x50 editors/lib.a(vi.o)
 .text.dot_begin
                0x000000000040f054       0x50 editors/lib.a(vi.o)
 .text.dot_end  0x000000000040f0a4       0x50 editors/lib.a(vi.o)
 .text.move_to_col
                0x000000000040f0f4      0x118 editors/lib.a(vi.o)
 .text.dot_next
                0x000000000040f20c       0x50 editors/lib.a(vi.o)
 .text.dot_prev
                0x000000000040f25c       0x50 editors/lib.a(vi.o)
 .text.screen_erase
                0x000000000040f2ac       0x2c editors/lib.a(vi.o)
 .text.psbs     0x000000000040f2d8       0xcc editors/lib.a(vi.o)
 .text.text_hole_delete
                0x000000000040f3a4      0x140 editors/lib.a(vi.o)
 .text.yank_delete
                0x000000000040f4e4       0x94 editors/lib.a(vi.o)
 .text.text_hole_make
                0x000000000040f578       0xfc editors/lib.a(vi.o)
 .text.stupid_insert
                0x000000000040f674       0x6c editors/lib.a(vi.o)
 .text.ni       0x000000000040f6e0      0x1cc editors/lib.a(vi.o)
 .text.psb      0x000000000040f8ac       0x64 editors/lib.a(vi.o)
 .text.write1   0x000000000040f910       0x20 editors/lib.a(vi.o)
 .text.clear_to_eos
                0x000000000040f930       0x24 editors/lib.a(vi.o)
 .text.standout_start
                0x000000000040f954       0x24 editors/lib.a(vi.o)
 .text.standout_end
                0x000000000040f978       0x24 editors/lib.a(vi.o)
 .text.clear_to_eol
                0x000000000040f99c       0x24 editors/lib.a(vi.o)
 .text.mysleep  0x000000000040f9c0       0xa8 editors/lib.a(vi.o)
 .text.get_one_char
                0x000000000040fa68      0x2d0 editors/lib.a(vi.o)
 .text.dot_skip_over_ws
                0x000000000040fd38       0x9c editors/lib.a(vi.o)
 .text.dot_scroll
                0x000000000040fdd4      0x10c editors/lib.a(vi.o)
 .text.skip_thing
                0x000000000040fee0      0x1e4 editors/lib.a(vi.o)
 .text.file_write
                0x00000000004100c4       0xd4 editors/lib.a(vi.o)
 .text.place_cursor
                0x0000000000410198       0xe0 editors/lib.a(vi.o)
 .text.refresh  0x0000000000410278      0x788 editors/lib.a(vi.o)
 .text.char_insert
                0x0000000000410a00      0x1b8 editors/lib.a(vi.o)
 .text.get_input_line
                0x0000000000410bb8      0x27c editors/lib.a(vi.o)
 .text.redraw   0x0000000000410e34       0xb0 editors/lib.a(vi.o)
 .text.Indicate_Error
                0x0000000000410ee4       0xd4 editors/lib.a(vi.o)
 .text.show_status_line
                0x0000000000410fb8      0x3f0 editors/lib.a(vi.o)
 .text.do_cmd   0x00000000004113a8     0x1d64 editors/lib.a(vi.o)
 .text.find_range
                0x000000000041310c      0x3a8 editors/lib.a(vi.o)
 .text.edit_file
                0x00000000004134b4      0x67c editors/lib.a(vi.o)
 .text.vi_main  0x0000000000413b30      0x170 editors/lib.a(vi.o)
                0x0000000000413b30                vi_main
 .text.alloc_action.6457
                0x0000000000413ca0       0xe4 findutils/lib.a(find.o)
 .text.find_main
                0x0000000000413d84      0x2f8 findutils/lib.a(find.o)
                0x0000000000413d84                find_main
 .text.func_name
                0x000000000041407c       0xac findutils/lib.a(find.o)
 .text.func_print
                0x0000000000414128       0x3c findutils/lib.a(find.o)
 .text.fileAction
                0x0000000000414164      0x10c findutils/lib.a(find.o)
 .text.add_grep_list_data
                0x0000000000414270       0x48 findutils/lib.a(grep.o)
 .text.print_line
                0x00000000004142b8       0xec findutils/lib.a(grep.o)
 .text.grep_file
                0x00000000004143a4      0x348 findutils/lib.a(grep.o)
 .text.grep_main
                0x00000000004146ec      0x544 findutils/lib.a(grep.o)
                0x00000000004146ec                grep_main
 .text.file_action_grep
                0x0000000000414c30       0xfc findutils/lib.a(grep.o)
 .text.halt_main
                0x0000000000414d2c      0x150 init/lib.a(halt.o)
                0x0000000000414d2c                halt_main
 .text.cont_handler
                0x0000000000414e7c       0x1c init/lib.a(init.o)
 .text.loop_forever
                0x0000000000414e98       0x34 init/lib.a(init.o)
 .text.init_reboot
                0x0000000000414ecc       0x7c init/lib.a(init.o)
 .text.set_sane_term
                0x0000000000414f48       0xc8 init/lib.a(init.o)
 .text.new_init_action
                0x0000000000415010      0x158 init/lib.a(init.o)
 .text.delete_init_action
                0x0000000000415168       0x70 init/lib.a(init.o)
 .text.message  0x00000000004151d8      0x184 init/lib.a(init.o)
 .text.parse_inittab
                0x000000000041535c      0x3b8 init/lib.a(init.o)
 .text.stop_handler
                0x0000000000415714       0x88 init/lib.a(init.o)
 .text.shutdown_system
                0x000000000041579c      0x274 init/lib.a(init.o)
 .text.shutdown_signal
                0x0000000000415a10       0xec init/lib.a(init.o)
 .text.open_stdio_to_tty
                0x0000000000415afc      0x150 init/lib.a(init.o)
 .text.run      0x0000000000415c4c      0x654 init/lib.a(init.o)
 .text.waitfor  0x00000000004162a0       0xc0 init/lib.a(init.o)
 .text.run_actions
                0x0000000000416360      0x14c init/lib.a(init.o)
 .text.init_main
                0x00000000004164ac      0x67c init/lib.a(init.o)
                0x00000000004164ac                init_main
 .text.reload_signal
                0x0000000000416b28       0xf8 init/lib.a(init.o)
 .text.ctrlaltdel_signal
                0x0000000000416c20       0x20 init/lib.a(init.o)
 .text.exec_signal
                0x0000000000416c40      0x2b8 init/lib.a(init.o)
 .text.bb_ask_confirmation
                0x0000000000416ef8      0x130 libbb/lib.a(ask_confirmation.o)
                0x0000000000416ef8                bb_ask_confirmation
 .text.bb_basename
                0x0000000000417028       0x50 libbb/lib.a(bb_basename.o)
                0x0000000000417028                bb_basename
 .text.xuname2uid
                0x0000000000417078       0x60 libbb/lib.a(bb_pwd.o)
                0x0000000000417078                xuname2uid
 .text.bb_getug
                0x00000000004170d8       0xac libbb/lib.a(bb_pwd.o)
 .text.bb_getgrgid
                0x0000000000417184       0x88 libbb/lib.a(bb_pwd.o)
                0x0000000000417184                bb_getgrgid
 .text.bb_getpwuid
                0x000000000041720c       0x88 libbb/lib.a(bb_pwd.o)
                0x000000000041720c                bb_getpwuid
 .text.ret_ERANGE
                0x0000000000417294       0x28 libbb/lib.a(bb_strtonum.o)
 .text.handle_errors
                0x00000000004172bc       0xc8 libbb/lib.a(bb_strtonum.o)
 .text.bb_strtol
                0x0000000000417384       0xd4 libbb/lib.a(bb_strtonum.o)
                0x0000000000417384                bb_strtol
 .text.bb_strtoul
                0x0000000000417458       0xc0 libbb/lib.a(bb_strtonum.o)
                0x0000000000417458                bb_strtoul
 .text.index_in_substrings
                0x0000000000417518       0xc0 libbb/lib.a(compare_string_array.o)
                0x0000000000417518                index_in_substrings
 .text.index_in_strings
                0x00000000004175d8       0x9c libbb/lib.a(compare_string_array.o)
                0x00000000004175d8                index_in_strings
 .text.concat_path_file
                0x0000000000417674       0xb4 libbb/lib.a(concat_path_file.o)
                0x0000000000417674                concat_path_file
 .text.ask_and_unlink
                0x0000000000417728       0xbc libbb/lib.a(copy_file.o)
 .text.copy_file
                0x00000000004177e4      0x844 libbb/lib.a(copy_file.o)
                0x00000000004177e4                copy_file
 .text.bb_full_fd_action
                0x0000000000418028      0x144 libbb/lib.a(copyfd.o)
 .text.bb_copyfd_eof
                0x000000000041816c       0x20 libbb/lib.a(copyfd.o)
                0x000000000041816c                bb_copyfd_eof
 .text.device_open
                0x000000000041818c       0xc4 libbb/lib.a(device_open.o)
                0x000000000041818c                device_open
 .text.bb_error_msg
                0x0000000000418250       0x4c libbb/lib.a(error_msg.o)
                0x0000000000418250                bb_error_msg
 .text.xfunc_die
                0x000000000041829c       0x5c libbb/lib.a(error_msg_and_die.o)
                0x000000000041829c                xfunc_die
 .text.bb_error_msg_and_die
                0x00000000004182f8       0x54 libbb/lib.a(error_msg_and_die.o)
                0x00000000004182f8                bb_error_msg_and_die
 .text.execable_file
                0x000000000041834c       0x80 libbb/lib.a(execable.o)
                0x000000000041834c                execable_file
 .text.find_execable
                0x00000000004183cc      0x124 libbb/lib.a(execable.o)
                0x00000000004183cc                find_execable
 .text.fclose_if_not_stdin
                0x00000000004184f0       0x3c libbb/lib.a(fclose_nonstdin.o)
                0x00000000004184f0                fclose_if_not_stdin
 .text.fflush_stdout_and_exit
                0x000000000041852c       0x64 libbb/lib.a(fflush_stdout_and_exit.o)
                0x000000000041852c                fflush_stdout_and_exit
 .text.find_mount_point
                0x0000000000418590      0x1d0 libbb/lib.a(find_mount_point.o)
                0x0000000000418590                find_mount_point
 .text.find_block_device_in_dir
                0x0000000000418760      0x200 libbb/lib.a(find_root_device.o)
 .text.find_block_device
                0x0000000000418960       0xb0 libbb/lib.a(find_root_device.o)
                0x0000000000418960                find_block_device
 .text.full_write
                0x0000000000418a10       0x88 libbb/lib.a(full_write.o)
                0x0000000000418a10                full_write
 .text.bb_get_last_path_component
                0x0000000000418a98       0x64 libbb/lib.a(get_last_path_component.o)
                0x0000000000418a98                bb_get_last_path_component
 .text.bb_get_chunk_from_file
                0x0000000000418afc      0x15c libbb/lib.a(get_line_from_file.o)
                0x0000000000418afc                bb_get_chunk_from_file
 .text.xmalloc_getline
                0x0000000000418c58       0x68 libbb/lib.a(get_line_from_file.o)
                0x0000000000418c58                xmalloc_getline
 .text.xmalloc_fgets
                0x0000000000418cc0       0x38 libbb/lib.a(get_line_from_file.o)
                0x0000000000418cc0                xmalloc_fgets
 .text.getopt32
                0x0000000000418cf8      0x76c libbb/lib.a(getopt32.o)
                0x0000000000418cf8                getopt32
 .text.is_in_ino_dev_hashtable
                0x0000000000419464       0xa8 libbb/lib.a(inode_hash.o)
                0x0000000000419464                is_in_ino_dev_hashtable
 .text.add_to_ino_dev_hashtable
                0x000000000041950c      0x114 libbb/lib.a(inode_hash.o)
                0x000000000041950c                add_to_ino_dev_hashtable
 .text.is_directory
                0x0000000000419620       0x80 libbb/lib.a(isdirectory.o)
                0x0000000000419620                is_directory
 .text.last_char_is
                0x00000000004196a0       0x7c libbb/lib.a(last_char_is.o)
                0x00000000004196a0                last_char_is
 .text.llist_unlink
                0x000000000041971c       0x58 libbb/lib.a(llist.o)
                0x000000000041971c                llist_unlink
 .text.llist_pop
                0x0000000000419774       0x6c libbb/lib.a(llist.o)
                0x0000000000419774                llist_pop
 .text.llist_free
                0x00000000004197e0       0x70 libbb/lib.a(llist.o)
                0x00000000004197e0                llist_free
 .text.llist_add_to_end
                0x0000000000419850       0x7c libbb/lib.a(llist.o)
                0x0000000000419850                llist_add_to_end
 .text.llist_add_to
                0x00000000004198cc       0x5c libbb/lib.a(llist.o)
                0x00000000004198cc                llist_add_to
 .text.bb_make_directory
                0x0000000000419928      0x260 libbb/lib.a(make_directory.o)
                0x0000000000419928                bb_make_directory
 .text.bb_makedev
                0x0000000000419b88       0x34 libbb/lib.a(makedev.o)
                0x0000000000419b88                bb_makedev
 .text.md5_begin
                0x0000000000419bbc       0x48 libbb/lib.a(md5.o)
                0x0000000000419bbc                md5_begin
 .text.md5_hash_block
                0x0000000000419c04      0x36c libbb/lib.a(md5.o)
 .text.md5_end  0x0000000000419f70      0x1f8 libbb/lib.a(md5.o)
                0x0000000000419f70                md5_end
 .text.md5_hash
                0x000000000041a168      0x108 libbb/lib.a(md5.o)
                0x000000000041a168                md5_hash
 .text.bb_mode_string
                0x000000000041a270       0xcc libbb/lib.a(mode_string.o)
                0x000000000041a270                bb_mode_string
 .text.bb_parse_mode
                0x000000000041a33c      0x318 libbb/lib.a(parse_mode.o)
                0x000000000041a33c                bb_parse_mode
 .text.bb_perror_msg
                0x000000000041a654       0x8c libbb/lib.a(perror_msg.o)
                0x000000000041a654                bb_perror_msg
 .text.bb_perror_msg_and_die
                0x000000000041a6e0       0x8c libbb/lib.a(perror_msg_and_die.o)
                0x000000000041a6e0                bb_perror_msg_and_die
 .text.bb_perror_nomsg_and_die
                0x000000000041a76c       0x1c libbb/lib.a(perror_nomsg_and_die.o)
                0x000000000041a76c                bb_perror_nomsg_and_die
 .text.bb_process_escape_sequence
                0x000000000041a788      0x108 libbb/lib.a(process_escape_sequence.o)
                0x000000000041a788                bb_process_escape_sequence
 .text.safe_read
                0x000000000041a890       0x98 libbb/lib.a(read.o)
                0x000000000041a890                safe_read
 .text.full_read
                0x000000000041a928       0x90 libbb/lib.a(read.o)
                0x000000000041a928                full_read
 .text.read_close
                0x000000000041a9b8       0x64 libbb/lib.a(read.o)
                0x000000000041a9b8                read_close
 .text.xmalloc_open_read_close
                0x000000000041aa1c      0x138 libbb/lib.a(read.o)
                0x000000000041aa1c                xmalloc_open_read_close
 .text.open_read_close
                0x000000000041ab54       0x74 libbb/lib.a(read.o)
                0x000000000041ab54                open_read_close
 .text.reads    0x000000000041abc8       0xc8 libbb/lib.a(read.o)
                0x000000000041abc8                reads
 .text.true_action
                0x000000000041ac90        0x8 libbb/lib.a(recursive_action.o)
 .text.recursive_action
                0x000000000041ac98      0x290 libbb/lib.a(recursive_action.o)
                0x000000000041ac98                recursive_action
 .text.remove_file
                0x000000000041af28      0x398 libbb/lib.a(remove_file.o)
                0x000000000041af28                remove_file
 .text.safe_strncpy
                0x000000000041b2c0       0x30 libbb/lib.a(safe_strncpy.o)
                0x000000000041b2c0                safe_strncpy
 .text.safe_write
                0x000000000041b2f0       0x98 libbb/lib.a(safe_write.o)
                0x000000000041b2f0                safe_write
 .text.skip_whitespace
                0x000000000041b388       0x54 libbb/lib.a(skip_whitespace.o)
                0x000000000041b388                skip_whitespace
 .text.tty_baud_to_value
                0x000000000041b3dc       0x78 libbb/lib.a(speed_table.o)
                0x000000000041b3dc                tty_baud_to_value
 .text.tty_value_to_baud
                0x000000000041b454       0x88 libbb/lib.a(speed_table.o)
                0x000000000041b454                tty_value_to_baud
 .text.bb_verror_msg
                0x000000000041b4dc      0x270 libbb/lib.a(verror_msg.o)
                0x000000000041b4dc                bb_verror_msg
 .text.forkexit_or_rexec
                0x000000000041b74c       0x70 libbb/lib.a(vfork_daemon_rexec.o)
                0x000000000041b74c                forkexit_or_rexec
 .text.bb_daemonize_or_rexec
                0x000000000041b7bc      0x1a0 libbb/lib.a(vfork_daemon_rexec.o)
                0x000000000041b7bc                bb_daemonize_or_rexec
 .text.bb_sanitize_stdio
                0x000000000041b95c       0x1c libbb/lib.a(vfork_daemon_rexec.o)
                0x000000000041b95c                bb_sanitize_stdio
 .text.wait4pid
                0x000000000041b978       0x90 libbb/lib.a(vfork_daemon_rexec.o)
                0x000000000041b978                wait4pid
 .text.spawn    0x000000000041ba08       0xb4 libbb/lib.a(vfork_daemon_rexec.o)
                0x000000000041ba08                spawn
 .text.bb_warn_ignoring_args
                0x000000000041babc       0x30 libbb/lib.a(warn_ignoring_args.o)
                0x000000000041babc                bb_warn_ignoring_args
 .text.fopen_or_warn_stdin
                0x000000000041baec       0x70 libbb/lib.a(wfopen_input.o)
                0x000000000041baec                fopen_or_warn_stdin
 .text.xstrtoul_range_sfx
                0x000000000041bb5c      0x1b4 libbb/lib.a(xatonum.o)
                0x000000000041bb5c                xstrtoul_range_sfx
 .text.xstrtol_range_sfx
                0x000000000041bd10       0xd4 libbb/lib.a(xatonum.o)
                0x000000000041bd10                xstrtol_range_sfx
 .text.xatol    0x000000000041bde4       0x44 libbb/lib.a(xatonum.o)
                0x000000000041bde4                xatol
 .text.xatol_range
                0x000000000041be28       0x40 libbb/lib.a(xatonum.o)
                0x000000000041be28                xatol_range
 .text.xatoul_sfx
                0x000000000041be68       0x40 libbb/lib.a(xatonum.o)
                0x000000000041be68                xatoul_sfx
 .text.xatoul   0x000000000041bea8       0x1c libbb/lib.a(xatonum.o)
                0x000000000041bea8                xatoul
 .text.xatoul_range
                0x000000000041bec4       0x40 libbb/lib.a(xatonum.o)
                0x000000000041bec4                xatoul_range
 .text.xatou16  0x000000000041bf04       0x3c libbb/lib.a(xatonum.o)
                0x000000000041bf04                xatou16
 .text.xatoi_u  0x000000000041bf40       0x20 libbb/lib.a(xatonum.o)
                0x000000000041bf40                xatoi_u
 .text.xatoul_range_sfx
                0x000000000041bf60       0x44 libbb/lib.a(xatonum.o)
                0x000000000041bf60                xatoul_range_sfx
 .text.utoa_to_buf
                0x000000000041bfa4       0x94 libbb/lib.a(xfuncs.o)
                0x000000000041bfa4                utoa_to_buf
 .text.itoa_to_buf
                0x000000000041c038       0x3c libbb/lib.a(xfuncs.o)
                0x000000000041c038                itoa_to_buf
 .text.itoa     0x000000000041c074       0x4c libbb/lib.a(xfuncs.o)
                0x000000000041c074                itoa
 .text.bin2hex  0x000000000041c0c0       0x64 libbb/lib.a(xfuncs.o)
                0x000000000041c0c0                bin2hex
 .text.bb_xioctl
                0x000000000041c124       0x5c libbb/lib.a(xfuncs.o)
                0x000000000041c124                bb_xioctl
 .text.bb_ioctl_or_warn
                0x000000000041c180       0x6c libbb/lib.a(xfuncs.o)
                0x000000000041c180                bb_ioctl_or_warn
 .text.ioctl_or_perror_and_die
                0x000000000041c1ec       0xa0 libbb/lib.a(xfuncs.o)
                0x000000000041c1ec                ioctl_or_perror_and_die
 .text.get_terminal_width_height
                0x000000000041c28c      0x170 libbb/lib.a(xfuncs.o)
                0x000000000041c28c                get_terminal_width_height
 .text.xstat    0x000000000041c3fc       0x5c libbb/lib.a(xfuncs.o)
                0x000000000041c3fc                xstat
 .text.xsendto  0x000000000041c458       0x60 libbb/lib.a(xfuncs.o)
                0x000000000041c458                xsendto
 .text.xbind    0x000000000041c4b8       0x58 libbb/lib.a(xfuncs.o)
                0x000000000041c4b8                xbind
 .text.xsocket  0x000000000041c510       0x58 libbb/lib.a(xfuncs.o)
                0x000000000041c510                xsocket
 .text.xopendir
                0x000000000041c568       0x5c libbb/lib.a(xfuncs.o)
                0x000000000041c568                xopendir
 .text.warn_opendir
                0x000000000041c5c4       0x6c libbb/lib.a(xfuncs.o)
                0x000000000041c5c4                warn_opendir
 .text.xchdir   0x000000000041c630       0x5c libbb/lib.a(xfuncs.o)
                0x000000000041c630                xchdir
 .text.xfflush_stdout
                0x000000000041c68c       0x5c libbb/lib.a(xfuncs.o)
                0x000000000041c68c                xfflush_stdout
 .text.xasprintf
                0x000000000041c6e8       0x70 libbb/lib.a(xfuncs.o)
                0x000000000041c6e8                xasprintf
 .text.xlseek   0x000000000041c758       0x78 libbb/lib.a(xfuncs.o)
                0x000000000041c758                xlseek
 .text.die_if_ferror
                0x000000000041c7d0       0x5c libbb/lib.a(xfuncs.o)
                0x000000000041c7d0                die_if_ferror
 .text.xwrite   0x000000000041c82c       0x64 libbb/lib.a(xfuncs.o)
                0x000000000041c82c                xwrite
 .text.xdup2    0x000000000041c890       0x5c libbb/lib.a(xfuncs.o)
                0x000000000041c890                xdup2
 .text.xmove_fd
                0x000000000041c8ec       0x60 libbb/lib.a(xfuncs.o)
                0x000000000041c8ec                xmove_fd
 .text.open3_or_warn
                0x000000000041c94c       0x6c libbb/lib.a(xfuncs.o)
                0x000000000041c94c                open3_or_warn
 .text.open_or_warn
                0x000000000041c9b8       0x1c libbb/lib.a(xfuncs.o)
                0x000000000041c9b8                open_or_warn
 .text.xopen3   0x000000000041c9d4       0x5c libbb/lib.a(xfuncs.o)
                0x000000000041c9d4                xopen3
 .text.xopen    0x000000000041ca30       0x1c libbb/lib.a(xfuncs.o)
                0x000000000041ca30                xopen
 .text.xfopen   0x000000000041ca4c       0x5c libbb/lib.a(xfuncs.o)
                0x000000000041ca4c                xfopen
 .text.xstrdup  0x000000000041caa8       0x60 libbb/lib.a(xfuncs.o)
                0x000000000041caa8                xstrdup
 .text.xrealloc
                0x000000000041cb08       0x64 libbb/lib.a(xfuncs.o)
                0x000000000041cb08                xrealloc
 .text.xmalloc  0x000000000041cb6c       0x64 libbb/lib.a(xfuncs.o)
                0x000000000041cb6c                xmalloc
 .text.xstrndup
                0x000000000041cbd0       0x8c libbb/lib.a(xfuncs.o)
                0x000000000041cbd0                xstrndup
 .text.xzalloc  0x000000000041cc5c       0x68 libbb/lib.a(xfuncs.o)
                0x000000000041cc5c                xzalloc
 .text.xrealloc_getcwd_or_warn
                0x000000000041ccc4      0x100 libbb/lib.a(xgetcwd.o)
                0x000000000041ccc4                xrealloc_getcwd_or_warn
 .text.xmalloc_readlink
                0x000000000041cdc4       0xc0 libbb/lib.a(xreadlink.o)
                0x000000000041cdc4                xmalloc_readlink
 .text.xmalloc_readlink_or_warn
                0x000000000041ce84       0x6c libbb/lib.a(xreadlink.o)
                0x000000000041ce84                xmalloc_readlink_or_warn
 .text.regcomp_or_errmsg
                0x000000000041cef0       0xb8 libbb/lib.a(xregcomp.o)
                0x000000000041cef0                regcomp_or_errmsg
 .text.xregcomp
                0x000000000041cfa8       0x58 libbb/lib.a(xregcomp.o)
                0x000000000041cfa8                xregcomp
 .text.concat_subpath_file
                0x000000000041d000       0x64 libbb/lib.a(concat_subpath_file.o)
                0x000000000041d000                concat_subpath_file
 .text.fopen_or_warn
                0x000000000041d064       0x84 libbb/lib.a(wfopen.o)
                0x000000000041d064                fopen_or_warn
 .text.run_command
                0x000000000041d0e8      0x224 miscutils/lib.a(time.o)
 .text.ptok     0x000000000041d30c       0xb0 miscutils/lib.a(time.o)
 .text.time_main
                0x000000000041d3bc      0x8f8 miscutils/lib.a(time.o)
                0x000000000041d3bc                time_main
 .text.watchdog_main
                0x000000000041dcb4      0x158 miscutils/lib.a(watchdog.o)
                0x000000000041dcb4                watchdog_main
 .text.watchdog_shutdown
                0x000000000041de0c       0x48 miscutils/lib.a(watchdog.o)
 .text.insmod_main
                0x000000000041de54      0x230 modutils/lib.a(insmod.o)
                0x000000000041de54                insmod_main
 .text.lsmod_main
                0x000000000041e084      0x2d8 modutils/lib.a(lsmod.o)
                0x000000000041e084                lsmod_main
 .text.append_option
                0x000000000041e35c       0xc8 modutils/lib.a(modprobe.o)
 .text.already_loaded
                0x000000000041e424      0x13c modutils/lib.a(modprobe.o)
 .text.parse_tag_value
                0x000000000041e560       0xc8 modutils/lib.a(modprobe.o)
 .text.include_conf
                0x000000000041e628      0x63c modutils/lib.a(modprobe.o)
 .text.build_dep
                0x000000000041ec64      0x6e0 modutils/lib.a(modprobe.o)
 .text.check_pattern
                0x000000000041f344       0xd0 modutils/lib.a(modprobe.o)
 .text.check_dep
                0x000000000041f414      0x308 modutils/lib.a(modprobe.o)
 .text.mod_process
                0x000000000041f71c      0x26c modutils/lib.a(modprobe.o)
 .text.modprobe_main
                0x000000000041f988      0x354 modutils/lib.a(modprobe.o)
                0x000000000041f988                modprobe_main
 .text.rmmod_main
                0x000000000041fcdc      0x204 modutils/lib.a(rmmod.o)
                0x000000000041fcdc                rmmod_main
 .text.arp_show
                0x000000000041fee0      0x4b4 networking/lib.a(arp.o)
 .text.arp_main
                0x0000000000420394      0x978 networking/lib.a(arp.o)
                0x0000000000420394                arp_main
 .text.ftp_die  0x0000000000420d0c       0x84 networking/lib.a(ftpgetput.o)
 .text.ftpcmd   0x0000000000420d90      0x174 networking/lib.a(ftpgetput.o)
 .text.ftp_login
                0x0000000000420f04      0x180 networking/lib.a(ftpgetput.o)
 .text.ftp_send
                0x0000000000421084      0x348 networking/lib.a(ftpgetput.o)
 .text.ftpgetput_main
                0x00000000004213cc      0x1c0 networking/lib.a(ftpgetput.o)
                0x00000000004213cc                ftpgetput_main
 .text.ifconfig_main
                0x000000000042158c      0x6a8 networking/lib.a(ifconfig.o)
                0x000000000042158c                ifconfig_main
 .text.dhcp_up  0x0000000000421c34        0x8 networking/lib.a(ifupdown.o)
 .text.dhcp_down
                0x0000000000421c3c        0x8 networking/lib.a(ifupdown.o)
 .text.manual_up_down
                0x0000000000421c44        0x8 networking/lib.a(ifupdown.o)
 .text.check    0x0000000000421c4c        0x8 networking/lib.a(ifupdown.o)
 .text.addstr   0x0000000000421c54       0xb4 networking/lib.a(ifupdown.o)
 .text.strncmpz
                0x0000000000421d08       0x60 networking/lib.a(ifupdown.o)
 .text.execute  0x0000000000421d68      0x490 networking/lib.a(ifupdown.o)
 .text.loopback_down
                0x00000000004221f8       0x2c networking/lib.a(ifupdown.o)
 .text.loopback_up
                0x0000000000422224       0x2c networking/lib.a(ifupdown.o)
 .text.bootp_up
                0x0000000000422250       0x2c networking/lib.a(ifupdown.o)
 .text.static_down
                0x000000000042227c       0x98 networking/lib.a(ifupdown.o)
 .text.static_up
                0x0000000000422314       0xd4 networking/lib.a(ifupdown.o)
 .text.ppp_down
                0x00000000004223e8       0x2c networking/lib.a(ifupdown.o)
 .text.ppp_up   0x0000000000422414       0x2c networking/lib.a(ifupdown.o)
 .text.wvdial_down
                0x0000000000422440       0x2c networking/lib.a(ifupdown.o)
 .text.wvdial_up
                0x000000000042246c       0x2c networking/lib.a(ifupdown.o)
 .text.find_iface_state
                0x0000000000422498       0xb4 networking/lib.a(ifupdown.o)
 .text.next_word
                0x000000000042254c       0xdc networking/lib.a(ifupdown.o)
 .text.read_iface_state
                0x0000000000422628       0xec networking/lib.a(ifupdown.o)
 .text.ifupdown_main
                0x0000000000422714      0xbe4 networking/lib.a(ifupdown.o)
                0x0000000000422714                ifupdown_main
 .text.setlocalenv
                0x00000000004232f8      0x160 networking/lib.a(ifupdown.o)
 .text.set_environ
                0x0000000000423458      0x298 networking/lib.a(ifupdown.o)
 .text.doit     0x00000000004236f0      0x13c networking/lib.a(ifupdown.o)
 .text.execute_all
                0x000000000042382c       0xfc networking/lib.a(ifupdown.o)
 .text.iface_up
                0x0000000000423928       0xe8 networking/lib.a(ifupdown.o)
 .text.iface_down
                0x0000000000423a10       0xe8 networking/lib.a(ifupdown.o)
 .text.get_afntype
                0x0000000000423af8       0x40 networking/lib.a(interface.o)
 .text.hexchar2int
                0x0000000000423b38       0x34 networking/lib.a(interface.o)
 .text.in_ether
                0x0000000000423b6c      0x140 networking/lib.a(interface.o)
 .text.get_hwntype
                0x0000000000423cac       0x40 networking/lib.a(interface.o)
                0x0000000000423cac                get_hwntype
 .text.get_hwtype
                0x0000000000423cec       0x7c networking/lib.a(interface.o)
                0x0000000000423cec                get_hwtype
 .text.get_aftype
                0x0000000000423d68       0x7c networking/lib.a(interface.o)
                0x0000000000423d68                get_aftype
 .text.add_interface
                0x0000000000423de4       0xfc networking/lib.a(interface.o)
 .text.if_readconf
                0x0000000000423ee0      0x158 networking/lib.a(interface.o)
 .text.if_readlist_proc
                0x0000000000424038      0x3e0 networking/lib.a(interface.o)
 .text.do_if_fetch
                0x0000000000424418      0x4c8 networking/lib.a(interface.o)
 .text.print_bytes_scaled
                0x00000000004248e0       0xb4 networking/lib.a(interface.o)
 .text.UNSPEC_print
                0x0000000000424994       0xa8 networking/lib.a(interface.o)
 .text.UNSPEC_sprint
                0x0000000000424a3c       0x48 networking/lib.a(interface.o)
 .text.INET6_input
                0x0000000000424a84       0x1c networking/lib.a(interface.o)
 .text.INET_input
                0x0000000000424aa0       0x1c networking/lib.a(interface.o)
 .text.INET_sprint
                0x0000000000424abc       0x98 networking/lib.a(interface.o)
 .text.INET6_sprint
                0x0000000000424b54       0x98 networking/lib.a(interface.o)
 .text.ife_print
                0x0000000000424bec      0x934 networking/lib.a(interface.o)
 .text.display_interfaces
                0x0000000000425520      0x1c8 networking/lib.a(interface.o)
                0x0000000000425520                display_interfaces
 .text.pr_ether
                0x00000000004256e8       0x8c networking/lib.a(interface.o)
 .text.ip_main  0x0000000000425774       0xb8 networking/lib.a(ip.o)
                0x0000000000425774                ip_main
 .text.ip_print_help
                0x000000000042582c       0x28 networking/lib.a(ip.o)
 .text.do_info  0x0000000000425854      0x13c networking/lib.a(netstat.o)
 .text.netstat_main
                0x0000000000425990      0x44c networking/lib.a(netstat.o)
                0x0000000000425990                netstat_main
 .text.build_ipv4_addr
                0x0000000000425ddc       0x50 networking/lib.a(netstat.o)
 .text.unix_do_one
                0x0000000000425e2c      0x400 networking/lib.a(netstat.o)
 .text.build_ipv6_addr
                0x000000000042622c       0xb4 networking/lib.a(netstat.o)
 .text.ip_port_str
                0x00000000004262e0      0x108 networking/lib.a(netstat.o)
 .text.raw_do_one
                0x00000000004263e8      0x298 networking/lib.a(netstat.o)
 .text.udp_do_one
                0x0000000000426680      0x2b8 networking/lib.a(netstat.o)
 .text.tcp_do_one
                0x0000000000426938      0x24c networking/lib.a(netstat.o)
 .text.sendping_tail
                0x0000000000426b84      0x11c networking/lib.a(ping.o)
 .text.sendping6
                0x0000000000426ca0       0xb4 networking/lib.a(ping.o)
 .text.sendping4
                0x0000000000426d54      0x128 networking/lib.a(ping.o)
 .text.unpack_tail
                0x0000000000426e7c      0x1fc networking/lib.a(ping.o)
 .text.ping6    0x0000000000427078      0x4cc networking/lib.a(ping.o)
 .text.ping4    0x0000000000427544      0x3b0 networking/lib.a(ping.o)
 .text.pingstats
                0x00000000004278f4      0x1e0 networking/lib.a(ping.o)
 .text.ping_main
                0x0000000000427ad4      0x2c0 networking/lib.a(ping.o)
                0x0000000000427ad4                ping_main
 .text.ping6_main
                0x0000000000427d94       0x28 networking/lib.a(ping.o)
                0x0000000000427d94                ping6_main
 .text.set_flags
                0x0000000000427dbc       0x5c networking/lib.a(route.o)
 .text.kw_lookup
                0x0000000000427e18       0xe4 networking/lib.a(route.o)
 .text.INET6_displayroutes
                0x0000000000427efc      0x310 networking/lib.a(route.o)
 .text.bb_displayroutes
                0x000000000042820c      0x350 networking/lib.a(route.o)
                0x000000000042820c                bb_displayroutes
 .text.route_main
                0x000000000042855c      0xa28 networking/lib.a(route.o)
                0x000000000042855c                route_main
 .text.xx_checksum
                0x0000000000428f84       0x70 networking/lib.a(tftp.o)
 .text.xx_raw_packet
                0x0000000000428ff4      0x288 networking/lib.a(tftp.o)
 .text.tftp     0x000000000042927c      0x67c networking/lib.a(tftp.o)
 .text.tftp_main
                0x00000000004298f8      0x4b8 networking/lib.a(tftp.o)
                0x00000000004298f8                tftp_main
 .text.xfind_str
                0x0000000000429db0       0x88 networking/lib.a(vconfig.o)
 .text.vconfig_main
                0x0000000000429e38      0x214 networking/lib.a(vconfig.o)
                0x0000000000429e38                vconfig_main
 .text.ip_parse_common_args
                0x000000000042a04c      0x23c networking/libiproute/lib.a(ip_parse_common_args.o)
                0x000000000042a04c                ip_parse_common_args
 .text.on_off   0x000000000042a288       0x30 networking/libiproute/lib.a(iplink.o)
 .text.get_ctl_fd
                0x000000000042a2b8       0x7c networking/libiproute/lib.a(iplink.o)
 .text.ipaddr_list_link
                0x000000000042a334       0x24 networking/libiproute/lib.a(iplink.o)
 .text.do_iplink
                0x000000000042a358      0x798 networking/libiproute/lib.a(iplink.o)
                0x000000000042a358                do_iplink
 .text.ll_addr_a2n
                0x000000000042aaf0      0x188 networking/libiproute/lib.a(ll_addr.o)
                0x000000000042aaf0                ll_addr_a2n
 .text.ll_addr_n2a
                0x000000000042ac78      0x154 networking/libiproute/lib.a(ll_addr.o)
                0x000000000042ac78                ll_addr_n2a
 .text.rt_addr_n2a
                0x000000000042adcc       0x48 networking/libiproute/lib.a(utils.o)
                0x000000000042adcc                rt_addr_n2a
 .text.inet_addr_match
                0x000000000042ae14       0xb4 networking/libiproute/lib.a(utils.o)
                0x000000000042ae14                inet_addr_match
 .text.duparg2  0x000000000042aec8       0x34 networking/libiproute/lib.a(utils.o)
                0x000000000042aec8                duparg2
 .text.duparg   0x000000000042aefc       0x34 networking/libiproute/lib.a(utils.o)
                0x000000000042aefc                duparg
 .text.invarg   0x000000000042af30       0x30 networking/libiproute/lib.a(utils.o)
                0x000000000042af30                invarg
 .text.incomplete_command
                0x000000000042af60       0x2c networking/libiproute/lib.a(utils.o)
                0x000000000042af60                incomplete_command
 .text.get_addr_1
                0x000000000042af8c      0x1e8 networking/libiproute/lib.a(utils.o)
                0x000000000042af8c                get_addr_1
 .text.get_integer
                0x000000000042b174       0x94 networking/libiproute/lib.a(utils.o)
                0x000000000042b174                get_integer
 .text.get_prefix_1
                0x000000000042b208      0x16c networking/libiproute/lib.a(utils.o)
                0x000000000042b208                get_prefix_1
 .text.get_prefix
                0x000000000042b374       0x78 networking/libiproute/lib.a(utils.o)
                0x000000000042b374                get_prefix
 .text.flush_update
                0x000000000042b3ec       0x7c networking/libiproute/lib.a(ipaddress.o)
 .text.print_addrinfo
                0x000000000042b468      0x8a0 networking/libiproute/lib.a(ipaddress.o)
 .text.ipaddr_list_or_flush
                0x000000000042bd08      0xe14 networking/libiproute/lib.a(ipaddress.o)
                0x000000000042bd08                ipaddr_list_or_flush
 .text.store_nlmsg
                0x000000000042cb1c       0xc4 networking/libiproute/lib.a(ipaddress.o)
 .text.parse_rtattr
                0x000000000042cbe0       0xb4 networking/libiproute/lib.a(libnetlink.o)
                0x000000000042cbe0                parse_rtattr
 .text.rtnl_dump_filter
                0x000000000042cc94      0x2a8 networking/libiproute/lib.a(libnetlink.o)
 .text.xrtnl_dump_filter
                0x000000000042cf3c       0x5c networking/libiproute/lib.a(libnetlink.o)
                0x000000000042cf3c                xrtnl_dump_filter
 .text.rtnl_send
                0x000000000042cf98       0x54 networking/libiproute/lib.a(libnetlink.o)
                0x000000000042cf98                rtnl_send
 .text.xrtnl_wilddump_request
                0x000000000042cfec       0x90 networking/libiproute/lib.a(libnetlink.o)
                0x000000000042cfec                xrtnl_wilddump_request
 .text.xrtnl_open
                0x000000000042d07c      0x12c networking/libiproute/lib.a(libnetlink.o)
                0x000000000042d07c                xrtnl_open
 .text.find_by_index
                0x000000000042d1a8       0x4c networking/libiproute/lib.a(ll_map.o)
 .text.ll_index_to_flags
                0x000000000042d1f4       0x60 networking/libiproute/lib.a(ll_map.o)
                0x000000000042d1f4                ll_index_to_flags
 .text.xll_name_to_index
                0x000000000042d254       0xe0 networking/libiproute/lib.a(ll_map.o)
                0x000000000042d254                xll_name_to_index
 .text.ll_idx_n2a
                0x000000000042d334       0x94 networking/libiproute/lib.a(ll_map.o)
                0x000000000042d334                ll_idx_n2a
 .text.ll_index_to_name
                0x000000000042d3c8       0x20 networking/libiproute/lib.a(ll_map.o)
                0x000000000042d3c8                ll_index_to_name
 .text.ll_remember_index
                0x000000000042d3e8      0x190 networking/libiproute/lib.a(ll_map.o)
                0x000000000042d3e8                ll_remember_index
 .text.ll_type_n2a
                0x000000000042d578       0x98 networking/libiproute/lib.a(ll_types.o)
                0x000000000042d578                ll_type_n2a
 .text.rtnl_tab_initialize
                0x000000000042d610      0x218 networking/libiproute/lib.a(rt_names.o)
 .text.rtnl_rtscope_initialize
                0x000000000042d828       0xc4 networking/libiproute/lib.a(rt_names.o)
 .text.rtnl_rtscope_a2n
                0x000000000042d8ec      0x17c networking/libiproute/lib.a(rt_names.o)
                0x000000000042d8ec                rtnl_rtscope_a2n
 .text.rtnl_rtscope_n2a
                0x000000000042da68       0xb4 networking/libiproute/lib.a(rt_names.o)
                0x000000000042da68                rtnl_rtscope_n2a
 .text.kill_main
                0x000000000042db1c      0x4a8 procps/lib.a(kill.o)
                0x000000000042db1c                kill_main
 .text.pidof_main
                0x000000000042dfc4      0x194 procps/lib.a(pidof.o)
                0x000000000042dfc4                pidof_main
 .text.ps_main  0x000000000042e158      0x158 procps/lib.a(ps.o)
                0x000000000042e158                ps_main
 .text.dwrite_str
                0x000000000042e2b0       0x5c procps/lib.a(sysctl.o)
 .text.sysctl_write_setting
                0x000000000042e30c      0x304 procps/lib.a(sysctl.o)
 .text.sysctl_preload_file
                0x000000000042e610      0x23c procps/lib.a(sysctl.o)
 .text.sysctl_read_setting
                0x000000000042e84c      0x294 procps/lib.a(sysctl.o)
 .text.sysctl_display_all
                0x000000000042eae0      0x1ac procps/lib.a(sysctl.o)
 .text.sysctl_main
                0x000000000042ec8c      0x27c procps/lib.a(sysctl.o)
                0x000000000042ec8c                sysctl_main
 .text.mem_sort
                0x000000000042ef08       0x28 procps/lib.a(top.o)
 .text.pcpu_sort
                0x000000000042ef30       0x10 procps/lib.a(top.o)
 .text.time_sort
                0x000000000042ef40       0x28 procps/lib.a(top.o)
 .text.mult_lvl_cmp
                0x000000000042ef68       0x7c procps/lib.a(top.o)
 .text.fmt_100percent_8
                0x000000000042efe4      0x100 procps/lib.a(top.o)
 .text.do_stats
                0x000000000042f0e4      0x2e0 procps/lib.a(top.o)
 .text.display_status
                0x000000000042f3c4      0x87c procps/lib.a(top.o)
 .text.clearmems
                0x000000000042fc40       0x60 procps/lib.a(top.o)
 .text.top_main
                0x000000000042fca0      0x2e8 procps/lib.a(top.o)
                0x000000000042fca0                top_main
 .text.uptime_main
                0x000000000042ff88      0x1e0 procps/lib.a(uptime.o)
                0x000000000042ff88                uptime_main
 .text.stunalloc
                0x0000000000430168       0x30 shell/lib.a(ash.o)
 .text.setstackmark
                0x0000000000430198       0x44 shell/lib.a(ash.o)
 .text.prefix   0x00000000004301dc       0x3c shell/lib.a(ash.o)
 .text.is_number
                0x0000000000430218       0x34 shell/lib.a(ash.o)
 .text.varcmp   0x000000000043024c       0x5c shell/lib.a(ash.o)
 .text.varequal
                0x00000000004302a8       0x40 shell/lib.a(ash.o)
 .text.hashvar  0x00000000004302e8       0x68 shell/lib.a(ash.o)
 .text.vpcmp    0x0000000000430350       0x24 shell/lib.a(ash.o)
 .text.findvar  0x0000000000430374       0x84 shell/lib.a(ash.o)
 .text.setprompt
                0x00000000004303f8       0x6c shell/lib.a(ash.o)
 .text.set_curjob
                0x0000000000430464       0xa8 shell/lib.a(ash.o)
 .text.jobno    0x000000000043050c       0x38 shell/lib.a(ash.o)
 .text.getstatus
                0x0000000000430544       0x78 shell/lib.a(ash.o)
 .text.esclen   0x00000000004305bc       0x34 shell/lib.a(ash.o)
 .text.falsecmd
                0x00000000004305f0        0x8 shell/lib.a(ash.o)
 .text.truecmd  0x00000000004305f8        0x8 shell/lib.a(ash.o)
 .text.bltincmd
                0x0000000000430600       0x20 shell/lib.a(ash.o)
 .text.pungetc  0x0000000000430620       0x30 shell/lib.a(ash.o)
 .text.freeparam
                0x0000000000430650       0x84 shell/lib.a(ash.o)
 .text.freefunc
                0x00000000004306d4       0x40 shell/lib.a(ash.o)
 .text.pstrcmp  0x0000000000430714       0x20 shell/lib.a(ash.o)
 .text.msort    0x0000000000430734      0x124 shell/lib.a(ash.o)
 .text.raise_exception
                0x0000000000430858       0x50 shell/lib.a(ash.o)
 .text.ignoresig
                0x00000000004308a8       0x84 shell/lib.a(ash.o)
 .text.raise_interrupt
                0x000000000043092c      0x100 shell/lib.a(ash.o)
 .text.popstring
                0x0000000000430a2c       0xdc shell/lib.a(ash.o)
 .text.popfile  0x0000000000430b08      0x180 shell/lib.a(ash.o)
 .text.popallfiles
                0x0000000000430c88       0x70 shell/lib.a(ash.o)
 .text.flush_stdout_stderr
                0x0000000000430cf8       0xc4 shell/lib.a(ash.o)
 .text.outcslow
                0x0000000000430dbc      0x108 shell/lib.a(ash.o)
 .text.ash_vmsg
                0x0000000000430ec4      0x160 shell/lib.a(ash.o)
 .text.ash_vmsg_and_raise
                0x0000000000431024       0x6c shell/lib.a(ash.o)
 .text.ash_msg_and_raise_error
                0x0000000000431090       0x44 shell/lib.a(ash.o)
 .text.copyfd   0x00000000004310d4       0x84 shell/lib.a(ash.o)
 .text.raise_error_syntax
                0x0000000000431158       0x30 shell/lib.a(ash.o)
 .text.nextopt  0x0000000000431188      0x174 shell/lib.a(ash.o)
 .text.cdopt    0x00000000004312fc       0x8c shell/lib.a(ash.o)
 .text.varunset
                0x0000000000431388       0x90 shell/lib.a(ash.o)
 .text.ash_msg_and_raise
                0x0000000000431418       0x38 shell/lib.a(ash.o)
 .text.showpipe
                0x0000000000431450       0xb4 shell/lib.a(ash.o)
 .text.popredir
                0x0000000000431504      0x194 shell/lib.a(ash.o)
 .text.clearredir
                0x0000000000431698       0x80 shell/lib.a(ash.o)
 .text.popstackmark
                0x0000000000431718      0x118 shell/lib.a(ash.o)
 .text.clearcmdentry
                0x0000000000431830      0x154 shell/lib.a(ash.o)
 .text.changepath
                0x0000000000431984      0x1ac shell/lib.a(ash.o)
 .text.onsig    0x0000000000431b30       0xb8 shell/lib.a(ash.o)
 .text.flush_stderr
                0x0000000000431be8       0xa8 shell/lib.a(ash.o)
 .text.delete_cmd_entry
                0x0000000000431c90       0xfc shell/lib.a(ash.o)
 .text.freejob  0x0000000000431d8c      0x154 shell/lib.a(ash.o)
 .text.removerecordregions
                0x0000000000431ee0      0x22c shell/lib.a(ash.o)
 .text.number   0x000000000043210c       0x68 shell/lib.a(ash.o)
 .text.getoptsreset
                0x0000000000432174       0x50 shell/lib.a(ash.o)
 .text.shiftcmd
                0x00000000004321c4      0x190 shell/lib.a(ash.o)
 .text.returncmd
                0x0000000000432354       0x64 shell/lib.a(ash.o)
 .text.breakcmd
                0x00000000004323b8       0xc8 shell/lib.a(ash.o)
 .text.getjob   0x0000000000432480      0x250 shell/lib.a(ash.o)
 .text.lookupvar
                0x00000000004326d0       0xa0 shell/lib.a(ash.o)
 .text.bltinlookup
                0x0000000000432770       0xb8 shell/lib.a(ash.o)
 .text.ckrealloc
                0x0000000000432828       0x58 shell/lib.a(ash.o)
 .text.ckmalloc
                0x0000000000432880       0x20 shell/lib.a(ash.o)
 .text.pushfile
                0x00000000004328a0       0xa0 shell/lib.a(ash.o)
 .text.stalloc  0x0000000000432940      0x15c shell/lib.a(ash.o)
 .text.makename
                0x0000000000432a9c       0x70 shell/lib.a(ash.o)
 .text.fixredir
                0x0000000000432b0c       0xc4 shell/lib.a(ash.o)
 .text.recordregion
                0x0000000000432bd0      0x114 shell/lib.a(ash.o)
 .text.ckstrdup
                0x0000000000432ce4       0x58 shell/lib.a(ash.o)
 .text.setvareq
                0x0000000000432d3c      0x1e0 shell/lib.a(ash.o)
 .text.listsetvar
                0x0000000000432f1c       0xdc shell/lib.a(ash.o)
 .text.setparam
                0x0000000000432ff8      0x100 shell/lib.a(ash.o)
 .text.setinputstring
                0x00000000004330f8       0xf4 shell/lib.a(ash.o)
 .text.calcsize
                0x00000000004331ec      0x1b8 shell/lib.a(ash.o)
 .text.sizenodelist
                0x00000000004333a4       0x78 shell/lib.a(ash.o)
 .text.growstackblock
                0x000000000043341c      0x200 shell/lib.a(ash.o)
 .text.makestrspace
                0x000000000043361c       0x98 shell/lib.a(ash.o)
 .text.memtodest
                0x00000000004336b4      0x100 shell/lib.a(ash.o)
 .text.cmdputs  0x00000000004337b4      0x2d4 shell/lib.a(ash.o)
 .text.cmdtxt   0x0000000000433a88      0x53c shell/lib.a(ash.o)
 .text.cmdlist  0x0000000000433fc4       0xc8 shell/lib.a(ash.o)
 .text.stack_nputstr
                0x000000000043408c       0x74 shell/lib.a(ash.o)
 .text.stack_putstr
                0x0000000000434100       0x5c shell/lib.a(ash.o)
 .text.ststrdup
                0x000000000043415c       0x74 shell/lib.a(ash.o)
 .text.addfname
                0x00000000004341d0       0x7c shell/lib.a(ash.o)
 .text.endofname
                0x000000000043424c       0xb0 shell/lib.a(ash.o)
 .text.setvar   0x00000000004342fc      0x1d0 shell/lib.a(ash.o)
 .text.unsetvar
                0x00000000004344cc      0x188 shell/lib.a(ash.o)
 .text.localcmd
                0x0000000000434654      0x250 shell/lib.a(ash.o)
 .text.setvarsafe
                0x00000000004348a4       0xf0 shell/lib.a(ash.o)
 .text.goodname
                0x0000000000434994       0x44 shell/lib.a(ash.o)
 .text.isassignment
                0x00000000004349d8       0x60 shell/lib.a(ash.o)
 .text.setpwd   0x0000000000434a38      0x1fc shell/lib.a(ash.o)
 .text.outstr   0x0000000000434c34       0xa4 shell/lib.a(ash.o)
 .text.out1str  0x0000000000434cd8       0x24 shell/lib.a(ash.o)
 .text.out2str  0x0000000000434cfc       0x4c shell/lib.a(ash.o)
 .text.stoppedjobs
                0x0000000000434d48       0x9c shell/lib.a(ash.o)
 .text.exitcmd  0x0000000000434de4       0x9c shell/lib.a(ash.o)
 .text.out1fmt  0x0000000000434e80       0xb0 shell/lib.a(ash.o)
 .text.options  0x0000000000434f30      0x370 shell/lib.a(ash.o)
 .text.printlim
                0x00000000004352a0       0x6c shell/lib.a(ash.o)
 .text.pwdcmd   0x000000000043530c       0xb8 shell/lib.a(ash.o)
 .text.helpcmd  0x00000000004353c4      0x118 shell/lib.a(ash.o)
 .text.ash_msg  0x00000000004354dc       0x4c shell/lib.a(ash.o)
 .text.setinputfile
                0x0000000000435528      0x200 shell/lib.a(ash.o)
 .text.setsignal
                0x0000000000435728      0x274 shell/lib.a(ash.o)
 .text.xtcsetpgrp
                0x000000000043599c       0x5c shell/lib.a(ash.o)
 .text.setjobctl
                0x00000000004359f8      0x2b8 shell/lib.a(ash.o)
 .text.optschanged
                0x0000000000435cb0       0xf8 shell/lib.a(ash.o)
 .text.preadbuffer
                0x0000000000435da8      0x3f0 shell/lib.a(ash.o)
 .text.pgetc    0x0000000000436198       0x5c shell/lib.a(ash.o)
 .text.pgetc2   0x00000000004361f4       0x5c shell/lib.a(ash.o)
 .text.growstackstr
                0x0000000000436250       0xb0 shell/lib.a(ash.o)
 .text._STPUTC  0x0000000000436300       0x68 shell/lib.a(ash.o)
 .text.listvars
                0x0000000000436368      0x164 shell/lib.a(ash.o)
 .text.tokname  0x00000000004364cc       0x90 shell/lib.a(ash.o)
 .text.raise_error_unexpected_syntax
                0x000000000043655c       0xc0 shell/lib.a(ash.o)
 .text.findkwd  0x000000000043661c       0x4c shell/lib.a(ash.o)
 .text.find_builtin
                0x0000000000436668       0x4c shell/lib.a(ash.o)
 .text.fmtstr   0x00000000004366b4       0xb0 shell/lib.a(ash.o)
 .text.sprint_status
                0x0000000000436764      0x158 shell/lib.a(ash.o)
 .text.dowait   0x00000000004368bc      0x278 shell/lib.a(ash.o)
 .text.waitcmd  0x0000000000436b34      0x26c shell/lib.a(ash.o)
 .text.waitforjob
                0x0000000000436da0      0x100 shell/lib.a(ash.o)
 .text.fg_bgcmd
                0x0000000000436ea0      0x284 shell/lib.a(ash.o)
 .text.getoptscmd
                0x0000000000437124      0x47c shell/lib.a(ash.o)
 .text.cvtnum   0x00000000004375a0       0x88 shell/lib.a(ash.o)
 .text.cmdlookup
                0x0000000000437628      0x150 shell/lib.a(ash.o)
 .text.unsetcmd
                0x0000000000437778      0x14c shell/lib.a(ash.o)
 .text.padvance
                0x00000000004378c4      0x1e0 shell/lib.a(ash.o)
 .text.showjob  0x0000000000437aa4      0x2c8 shell/lib.a(ash.o)
 .text.showjobs
                0x0000000000437d6c       0xd0 shell/lib.a(ash.o)
 .text.jobscmd  0x0000000000437e3c      0x130 shell/lib.a(ash.o)
 .text.nodeckstrdup
                0x0000000000437f6c       0x88 shell/lib.a(ash.o)
 .text.copynode
                0x0000000000437ff4      0x208 shell/lib.a(ash.o)
 .text.copynodelist
                0x00000000004381fc       0x9c shell/lib.a(ash.o)
 .text.umaskcmd
                0x0000000000438298      0x2ec shell/lib.a(ash.o)
 .text.ulimitcmd
                0x0000000000438584      0x304 shell/lib.a(ash.o)
 .text.errmsg   0x0000000000438888       0x3c shell/lib.a(ash.o)
 .text.single_quote
                0x00000000004388c4      0x14c shell/lib.a(ash.o)
 .text.trapcmd  0x0000000000438a10      0x2b0 shell/lib.a(ash.o)
 .text.timescmd
                0x0000000000438cc0      0x14c shell/lib.a(ash.o)
 .text.showvars
                0x0000000000438e0c      0x174 shell/lib.a(ash.o)
 .text.setcmd   0x0000000000438f80      0x134 shell/lib.a(ash.o)
 .text.exportcmd
                0x00000000004390b4      0x190 shell/lib.a(ash.o)
 .text.readcmd  0x0000000000439244      0x3c8 shell/lib.a(ash.o)
 .text.arith    0x000000000043960c      0x8a8 shell/lib.a(ash.o)
 .text.dash_arith
                0x0000000000439eb4      0x128 shell/lib.a(ash.o)
 .text.letcmd   0x0000000000439fdc       0x90 shell/lib.a(ash.o)
 .text.arith_lookup_val
                0x000000000043a06c       0xfc shell/lib.a(ash.o)
 .text.killcmd  0x000000000043a168      0x118 shell/lib.a(ash.o)
 .text.tryexec  0x000000000043a280      0x16c shell/lib.a(ash.o)
 .text.shellexec
                0x000000000043a3ec      0x1e4 shell/lib.a(ash.o)
 .text.execcmd  0x000000000043a5d0       0x7c shell/lib.a(ash.o)
 .text.cdcmd    0x000000000043a64c      0x5f8 shell/lib.a(ash.o)
 .text.testcmd  0x000000000043ac44       0x1c shell/lib.a(ash.o)
 .text._rmescapes
                0x000000000043ac60      0x1e4 shell/lib.a(ash.o)
 .text.parsefname
                0x000000000043ae44      0x208 shell/lib.a(ash.o)
 .text.parse_command
                0x000000000043b04c      0xa90 shell/lib.a(ash.o)
 .text.pipeline
                0x000000000043badc      0x1d4 shell/lib.a(ash.o)
 .text.list     0x000000000043bcb0      0x304 shell/lib.a(ash.o)
 .text.readtoken1
                0x000000000043bfb4     0x1508 shell/lib.a(ash.o)
 .text.parseheredoc
                0x000000000043d4bc      0x144 shell/lib.a(ash.o)
 .text.xxreadtoken
                0x000000000043d600      0x350 shell/lib.a(ash.o)
 .text.readtoken
                0x000000000043d950      0x150 shell/lib.a(ash.o)
 .text.peektoken
                0x000000000043daa0       0x64 shell/lib.a(ash.o)
 .text.parsecmd
                0x000000000043db04       0xc0 shell/lib.a(ash.o)
 .text.preglob  0x000000000043dbc4       0x2c shell/lib.a(ash.o)
 .text.makejob  0x000000000043dbf0      0x23c shell/lib.a(ash.o)
 .text.scanright
                0x000000000043de2c      0x11c shell/lib.a(ash.o)
 .text.scanleft
                0x000000000043df48       0xd8 shell/lib.a(ash.o)
 .text.forkshell
                0x000000000043e020      0x558 shell/lib.a(ash.o)
 .text.expmeta  0x000000000043e578      0x3f8 shell/lib.a(ash.o)
 .text.noclobberopen
                0x000000000043e970      0x154 shell/lib.a(ash.o)
 .text.redirect
                0x000000000043eac4      0x638 shell/lib.a(ash.o)
 .text.redirectsafe
                0x000000000043f0fc      0x118 shell/lib.a(ash.o)
 .text.evaltree
                0x000000000043f214      0x528 shell/lib.a(ash.o)
 .text.evalstring
                0x000000000043f73c      0x138 shell/lib.a(ash.o)
 .text.evalcmd  0x000000000043f874      0x114 shell/lib.a(ash.o)
 .text.exitshell
                0x000000000043f988       0xe4 shell/lib.a(ash.o)
 .text.cmdloop  0x000000000043fa6c      0x1f8 shell/lib.a(ash.o)
 .text.read_profile
                0x000000000043fc64       0x9c shell/lib.a(ash.o)
 .text.ash_main
                0x000000000043fd00      0x810 shell/lib.a(ash.o)
                0x000000000043fd00                ash_main
 .text.find_command
                0x0000000000440510      0x668 shell/lib.a(ash.o)
 .text.typecmd  0x0000000000440b78      0x334 shell/lib.a(ash.o)
 .text.hashcmd  0x0000000000440eac      0x2ac shell/lib.a(ash.o)
 .text.dotcmd   0x0000000000441158      0x280 shell/lib.a(ash.o)
 .text.argstr   0x00000000004413d8      0x914 shell/lib.a(ash.o)
 .text.expandarg
                0x0000000000441cec      0x6ac shell/lib.a(ash.o)
 .text.expredir
                0x0000000000442398      0x124 shell/lib.a(ash.o)
 .text.subevalvar
                0x00000000004424bc      0x24c shell/lib.a(ash.o)
 .text.evalvar  0x0000000000442708      0x854 shell/lib.a(ash.o)
 .text.evalcase
                0x0000000000442f5c      0x24c shell/lib.a(ash.o)
 .text.evalloop
                0x00000000004431a8      0x170 shell/lib.a(ash.o)
 .text.evalfor  0x0000000000443318      0x1dc shell/lib.a(ash.o)
 .text.evalfun  0x00000000004434f4      0x3d8 shell/lib.a(ash.o)
 .text.evalsubshell
                0x00000000004438cc      0x1f0 shell/lib.a(ash.o)
 .text.evalpipe
                0x0000000000443abc      0x394 shell/lib.a(ash.o)
 .text.evalbltin
                0x0000000000443e50      0x154 shell/lib.a(ash.o)
 .text.evalcommand
                0x0000000000443fa4      0x750 shell/lib.a(ash.o)
 .text.decode   0x00000000004446f4       0xa0 sysklogd/lib.a(logger.o)
 .text.logger_main
                0x0000000000444794      0x2f8 sysklogd/lib.a(logger.o)
                0x0000000000444794                logger_main
 .text.timestamp_and_log
                0x0000000000444a8c      0x3f0 sysklogd/lib.a(syslogd.o)
 .text.do_syslogd
                0x0000000000444e7c      0x858 sysklogd/lib.a(syslogd.o)
 .text.syslogd_main
                0x00000000004456d4      0x2b4 sysklogd/lib.a(syslogd.o)
                0x00000000004456d4                syslogd_main
 .text.quit_signal
                0x0000000000445988       0x68 sysklogd/lib.a(syslogd.o)
 .text.dmesg_main
                0x00000000004459f0      0x1c0 util-linux/lib.a(dmesg.o)
                0x00000000004459f0                dmesg_main
 .text.hexdump_main
                0x0000000000445bb0      0x34c util-linux/lib.a(hexdump.o)
                0x0000000000445bb0                hexdump_main
 .text.print_perms
                0x0000000000445efc      0x184 util-linux/lib.a(ipcs.o)
 .text.ipcs_main
                0x0000000000446080     0x15f4 util-linux/lib.a(ipcs.o)
                0x0000000000446080                ipcs_main
 .text.append_mount_options
                0x0000000000447674      0x1bc util-linux/lib.a(mount.o)
 .text.parse_mount_options
                0x0000000000447830      0x1a8 util-linux/lib.a(mount.o)
 .text.mount_it_now
                0x00000000004479d8      0x114 util-linux/lib.a(mount.o)
 .text.singlemount
                0x0000000000447aec      0x424 util-linux/lib.a(mount.o)
 .text.mount_main
                0x0000000000447f10      0x63c util-linux/lib.a(mount.o)
                0x0000000000447f10                mount_main
 .text.umount_main
                0x000000000044854c      0x428 util-linux/lib.a(umount.o)
                0x000000000044854c                umount_main
 .text.create_icmp6_socket
                0x0000000000448974       0xac libbb/lib.a(create_icmp6_socket.o)
                0x0000000000448974                create_icmp6_socket
 .text.create_icmp_socket
                0x0000000000448a20       0xac libbb/lib.a(create_icmp_socket.o)
                0x0000000000448a20                create_icmp_socket
 .text.bb_dump_add
                0x0000000000448acc      0x368 libbb/lib.a(dump.o)
                0x0000000000448acc                bb_dump_add
 .text.bb_dump_size
                0x0000000000448e34      0x1ec libbb/lib.a(dump.o)
                0x0000000000448e34                bb_dump_size
 .text.next     0x0000000000449020      0x24c libbb/lib.a(dump.o)
 .text.bb_dump_dump
                0x000000000044926c     0x10bc libbb/lib.a(dump.o)
                0x000000000044926c                bb_dump_dump
 .text.pidlist_reverse
                0x000000000044a328       0x6c libbb/lib.a(find_pid_by_name.o)
                0x000000000044a328                pidlist_reverse
 .text.find_pid_by_name
                0x000000000044a394      0x134 libbb/lib.a(find_pid_by_name.o)
                0x000000000044a394                find_pid_by_name
 .text.bb_herror_msg_and_die
                0x000000000044a4c8       0x8c libbb/lib.a(herror_msg_and_die.o)
                0x000000000044a4c8                bb_herror_msg_and_die
 .text.INET6_rresolve
                0x000000000044a554      0x150 libbb/lib.a(inet_common.o)
                0x000000000044a554                INET6_rresolve
 .text.INET6_resolve
                0x000000000044a6a4       0xe4 libbb/lib.a(inet_common.o)
                0x000000000044a6a4                INET6_resolve
 .text.INET_rresolve
                0x000000000044a788      0x244 libbb/lib.a(inet_common.o)
                0x000000000044a788                INET_rresolve
 .text.INET_resolve
                0x000000000044a9cc       0xd0 libbb/lib.a(inet_common.o)
                0x000000000044a9cc                INET_resolve
 .text.new_line_input_t
                0x000000000044aa9c       0x44 libbb/lib.a(lineedit.o)
                0x000000000044aa9c                new_line_input_t
 .text.put_prompt
                0x000000000044aae0       0x80 libbb/lib.a(lineedit.o)
 .text.beep     0x000000000044ab60       0x70 libbb/lib.a(lineedit.o)
 .text.cmdedit_set_out_char
                0x000000000044abd0      0x1e8 libbb/lib.a(lineedit.o)
 .text.input_end
                0x000000000044adb8       0x74 libbb/lib.a(lineedit.o)
 .text.goto_new_line
                0x000000000044ae2c       0xc4 libbb/lib.a(lineedit.o)
 .text.match_compare
                0x000000000044aef0       0x24 libbb/lib.a(lineedit.o)
 .text.get_previous_history
                0x000000000044af14      0x100 libbb/lib.a(lineedit.o)
 .text.get_next_history
                0x000000000044b014       0xb8 libbb/lib.a(lineedit.o)
 .text.add_quote_for_spec_chars
                0x000000000044b0cc       0xdc libbb/lib.a(lineedit.o)
 .text.input_backward
                0x000000000044b1a8       0xe8 libbb/lib.a(lineedit.o)
 .text.input_delete
                0x000000000044b290       0xd8 libbb/lib.a(lineedit.o)
 .text.input_backspace
                0x000000000044b368       0x74 libbb/lib.a(lineedit.o)
 .text.redraw   0x000000000044b3dc      0x11c libbb/lib.a(lineedit.o)
 .text.input_tab
                0x000000000044b4f8     0x1338 libbb/lib.a(lineedit.o)
 .text.win_changed
                0x000000000044c830      0x100 libbb/lib.a(lineedit.o)
 .text.read_line_input
                0x000000000044c930      0x910 libbb/lib.a(lineedit.o)
                0x000000000044c930                read_line_input
 .text.del_loop
                0x000000000044d240       0x84 libbb/lib.a(loop.o)
                0x000000000044d240                del_loop
 .text.set_loop
                0x000000000044d2c4      0x368 libbb/lib.a(loop.o)
                0x000000000044d2c4                set_loop
 .text.match_fstype
                0x000000000044d62c      0x108 libbb/lib.a(match_fstype.o)
                0x000000000044d62c                match_fstype
 .text.fast_strtoul_10
                0x000000000044d734       0x48 libbb/lib.a(procps.o)
 .text.skip_fields
                0x000000000044d77c       0x28 libbb/lib.a(procps.o)
 .text.read_cmdline
                0x000000000044d7a4       0xf8 libbb/lib.a(procps.o)
                0x000000000044d7a4                read_cmdline
 .text.clear_cache
                0x000000000044d89c       0x4c libbb/lib.a(procps.o)
 .text.clear_username_cache
                0x000000000044d8e8       0x54 libbb/lib.a(procps.o)
                0x000000000044d8e8                clear_username_cache
 .text.read_to_buf
                0x000000000044d93c       0xa4 libbb/lib.a(procps.o)
 .text.free_procps_scan
                0x000000000044d9e0       0x64 libbb/lib.a(procps.o)
                0x000000000044d9e0                free_procps_scan
 .text.alloc_procps_scan
                0x000000000044da44       0x64 libbb/lib.a(procps.o)
                0x000000000044da44                alloc_procps_scan
 .text.procps_scan
                0x000000000044daa8      0x400 libbb/lib.a(procps.o)
                0x000000000044daa8                procps_scan
 .text.get_cached
                0x000000000044dea8       0xcc libbb/lib.a(procps.o)
 .text.get_cached_username
                0x000000000044df74       0x28 libbb/lib.a(procps.o)
                0x000000000044df74                get_cached_username
 .text.bb_simplify_path
                0x000000000044df9c      0x18c libbb/lib.a(simplify_path.o)
                0x000000000044df9c                bb_simplify_path
 .text.get_mono
                0x000000000044e128       0x5c libbb/lib.a(time.o)
 .text.monotonic_us
                0x000000000044e184       0x84 libbb/lib.a(time.o)
                0x000000000044e184                monotonic_us
 .text.trim     0x000000000044e208       0xcc libbb/lib.a(trim.o)
                0x000000000044e208                trim
 .text.get_signame
                0x000000000044e2d4       0x58 libbb/lib.a(u_signal_names.o)
                0x000000000044e2d4                get_signame
 .text.get_signum
                0x000000000044e32c       0xe8 libbb/lib.a(u_signal_names.o)
                0x000000000044e32c                get_signum
 .text.get_nport
                0x000000000044e414       0x28 libbb/lib.a(xconnect.o)
                0x000000000044e414                get_nport
 .text.set_nport
                0x000000000044e43c       0x2c libbb/lib.a(xconnect.o)
                0x000000000044e43c                set_nport
 .text.sockaddr2str
                0x000000000044e468      0x128 libbb/lib.a(xconnect.o)
 .text.xmalloc_sockaddr2dotted_noport
                0x000000000044e590       0x20 libbb/lib.a(xconnect.o)
                0x000000000044e590                xmalloc_sockaddr2dotted_noport
 .text.xmalloc_sockaddr2dotted
                0x000000000044e5b0       0x20 libbb/lib.a(xconnect.o)
                0x000000000044e5b0                xmalloc_sockaddr2dotted
 .text.xmalloc_sockaddr2host_noport
                0x000000000044e5d0       0x20 libbb/lib.a(xconnect.o)
                0x000000000044e5d0                xmalloc_sockaddr2host_noport
 .text.str2sockaddr
                0x000000000044e5f0      0x274 libbb/lib.a(xconnect.o)
 .text.xdotted2sockaddr
                0x000000000044e864       0x20 libbb/lib.a(xconnect.o)
                0x000000000044e864                xdotted2sockaddr
 .text.xhost2sockaddr
                0x000000000044e884       0x20 libbb/lib.a(xconnect.o)
                0x000000000044e884                xhost2sockaddr
 .text.xhost_and_af2sockaddr
                0x000000000044e8a4       0x20 libbb/lib.a(xconnect.o)
                0x000000000044e8a4                xhost_and_af2sockaddr
 .text.bb_lookup_port
                0x000000000044e8c4       0xc8 libbb/lib.a(xconnect.o)
                0x000000000044e8c4                bb_lookup_port
 .text.xconnect
                0x000000000044e98c       0xa0 libbb/lib.a(xconnect.o)
                0x000000000044e98c                xconnect
 .text.xconnect_stream
                0x000000000044ea2c       0x70 libbb/lib.a(xconnect.o)
                0x000000000044ea2c                xconnect_stream
 .text.setsockopt_broadcast
                0x000000000044ea9c       0x44 libbb/lib.a(xconnect.o)
                0x000000000044ea9c                setsockopt_broadcast
 .text          0x000000000044eae0       0x50 /opt/toolchains/buildroot-be-gcc434-2013-0107/usr/bin/../lib/gcc/mips-unknown-linux-uclibc/4.3.4/libgcc.a(_lshrdi3.o)
                0x000000000044eae0                __lshrdi3
 .text          0x000000000044eb30      0x540 /opt/toolchains/buildroot-be-gcc434-2013-0107/usr/bin/../lib/gcc/mips-unknown-linux-uclibc/4.3.4/libgcc.a(_udivdi3.o)
                0x000000000044eb30                __udivdi3
 .text          0x000000000044f070       0x70 /opt/toolchains/buildroot-be-gcc434-2013-0107/usr/bin/../lib/gcc/mips-unknown-linux-uclibc/4.3.4/libgcc.a(_sf_to_df.o)
                0x000000000044f070                __extendsfdf2
 .text          0x000000000044f0e0       0x60 /opt/toolchains/buildroot-be-gcc434-2013-0107/usr/bin/../lib/gcc/mips-unknown-linux-uclibc/4.3.4/libgcc.a(_make_df.o)
                0x000000000044f0e0                __make_dp
 .text          0x000000000044f140       0xd0 /opt/toolchains/buildroot-be-gcc434-2013-0107/usr/bin/../lib/gcc/mips-unknown-linux-uclibc/4.3.4/libgcc.a(_unpack_sf.o)
                0x000000000044f140                __unpack_f
 .text          0x000000000044f210      0x280 /opt/toolchains/buildroot-be-gcc434-2013-0107/usr/bin/../lib/gcc/mips-unknown-linux-uclibc/4.3.4/libgcc.a(_pack_df.o)
                0x000000000044f210                __pack_d
 .text          0x000000000044f490       0x50 /opt/toolchains/buildroot-be-gcc434-2013-0107/usr/bin/../lib/gcc/mips-unknown-linux-uclibc/4.3.4/libgcc.a(_ashldi3.o)
                0x000000000044f490                __ashldi3
 .text          0x000000000044f4e0       0x40 /opt/toolchains/buildroot-be-gcc434-2013-0107/usr/bin/../lib/gcc/mips-unknown-linux-uclibc/4.3.4/libgcc.a(_ucmpdi2.o)
                0x000000000044f4e0                __ucmpdi2
 .text          0x000000000044f520       0x60 /opt/toolchains/buildroot-be-gcc434-2013-0107/usr/bin/../lib/gcc/mips-unknown-linux-uclibc/4.3.4/crtend.o
 *(.gnu.warning)
 *(.mips16.fn.*)
 *(.mips16.call.*)

.MIPS.stubs     0x000000000044f580      0xe40
 .MIPS.stubs    0x000000000044f580      0xe40 /opt/buildroot-be-gcc434/usr/lib/crt1.o
                0x000000000044f580                getpriority
                0x000000000044f590                _setjmp
                0x000000000044f5a0                tcgetpgrp
                0x000000000044f5b0                vasprintf
                0x000000000044f5c0                fchdir
                0x000000000044f5d0                bind
                0x000000000044f5e0                sysconf
                0x000000000044f5f0                gethostbyname
                0x000000000044f600                strftime
                0x000000000044f610                mknod
                0x000000000044f620                __errno_location
                0x000000000044f630                inet_aton
                0x000000000044f640                open
                0x000000000044f650                setrlimit
                0x000000000044f660                getenv
                0x000000000044f670                regexec
                0x000000000044f680                execle
                0x000000000044f690                memcpy
                0x000000000044f6a0                ttyname
                0x000000000044f6b0                umount2
                0x000000000044f6c0                connect
                0x000000000044f6d0                sigfillset
                0x000000000044f6e0                uname
                0x000000000044f6f0                div
                0x000000000044f700                getpgrp
                0x000000000044f710                getrlimit
                0x000000000044f720                sleep
                0x000000000044f730                realloc
                0x000000000044f740                getprotobyname
                0x000000000044f750                syscall
                0x000000000044f760                send
                0x000000000044f770                vfprintf
                0x000000000044f780                endmntent
                0x000000000044f790                sysinfo
                0x000000000044f7a0                getegid
                0x000000000044f7b0                readlink
                0x000000000044f7c0                strspn
                0x000000000044f7d0                getsockname
                0x000000000044f7e0                strcat
                0x000000000044f7f0                feof
                0x000000000044f800                realpath
                0x000000000044f810                lchown
                0x000000000044f820                execve
                0x000000000044f830                chown
                0x000000000044f840                rmdir
                0x000000000044f850                openlog
                0x000000000044f860                putenv
                0x000000000044f870                getcwd
                0x000000000044f880                __cmsg_nxthdr
                0x000000000044f890                getnameinfo
                0x000000000044f8a0                setenv
                0x000000000044f8b0                strcasecmp
                0x000000000044f8c0                freeaddrinfo
                0x000000000044f8d0                strtoul
                0x000000000044f8e0                mkdir
                0x000000000044f8f0                malloc
                0x000000000044f900                klogctl
                0x000000000044f910                strrchr
                0x000000000044f920                strncmp
                0x000000000044f930                __uClibc_main
                0x000000000044f940                inet_pton
                0x000000000044f950                getmntent_r
                0x000000000044f960                ioctl
                0x000000000044f970                recv
                0x000000000044f980                strlen
                0x000000000044f990                ctime
                0x000000000044f9a0                opendir
                0x000000000044f9b0                setmntent
                0x000000000044f9c0                strtod
                0x000000000044f9d0                pause
                0x000000000044f9e0                sendto
                0x000000000044f9f0                strtol
                0x000000000044fa00                fcntl
                0x000000000044fa10                lseek
                0x000000000044fa20                cfgetospeed
                0x000000000044fa30                isalnum
                0x000000000044fa40                sendmsg
                0x000000000044fa50                snprintf
                0x000000000044fa60                setpgid
                0x000000000044fa70                dup
                0x000000000044fa80                dup2
                0x000000000044fa90                read
                0x000000000044faa0                islower
                0x000000000044fab0                select
                0x000000000044fac0                cfsetispeed
                0x000000000044fad0                _exit
                0x000000000044fae0                strncasecmp
                0x000000000044faf0                isupper
                0x000000000044fb00                utime
                0x000000000044fb10                __fputc_unlocked
                0x000000000044fb20                access
                0x000000000044fb30                fdopen
                0x000000000044fb40                wait
                0x000000000044fb50                ispunct
                0x000000000044fb60                getpid
                0x000000000044fb70                freopen
                0x000000000044fb80                __fgetc_unlocked
                0x000000000044fb90                strtoull
                0x000000000044fba0                sigprocmask
                0x000000000044fbb0                mktime
                0x000000000044fbc0                memmove
                0x000000000044fbd0                strsep
                0x000000000044fbe0                getpagesize
                0x000000000044fbf0                fclose
                0x000000000044fc00                setsockopt
                0x000000000044fc10                fread
                0x000000000044fc20                wait3
                0x000000000044fc30                bsearch
                0x000000000044fc40                fopen
                0x000000000044fc50                cfsetospeed
                0x000000000044fc60                vsprintf
                0x000000000044fc70                gethostname
                0x000000000044fc80                chmod
                0x000000000044fc90                dprintf
                0x000000000044fca0                tcsetpgrp
                0x000000000044fcb0                cfgetispeed
                0x000000000044fcc0                time
                0x000000000044fcd0                fgetc
                0x000000000044fce0                strtok
                0x000000000044fcf0                fileno
                0x000000000044fd00                vprintf
                0x000000000044fd10                write
                0x000000000044fd20                getpwnam
                0x000000000044fd30                isatty
                0x000000000044fd40                times
                0x000000000044fd50                closedir
                0x000000000044fd60                strchrnul
                0x000000000044fd70                longjmp
                0x000000000044fd80                setpriority
                0x000000000044fd90                killpg
                0x000000000044fda0                localtime
                0x000000000044fdb0                close
                0x000000000044fdc0                fputc
                0x000000000044fdd0                getpwuid
                0x000000000044fde0                setsid
                0x000000000044fdf0                fgets
                0x000000000044fe00                sigaction
                0x000000000044fe10                ferror
                0x000000000044fe20                umask
                0x000000000044fe30                sscanf
                0x000000000044fe40                strncpy
                0x000000000044fe50                semctl
                0x000000000044fe60                tcsetattr
                0x000000000044fe70                sigaddset
                0x000000000044fe80                fputs
                0x000000000044fe90                tcgetattr
                0x000000000044fea0                getppid
                0x000000000044feb0                chdir
                0x000000000044fec0                unlink
                0x000000000044fed0                closelog
                0x000000000044fee0                sync
                0x000000000044fef0                regerror
                0x000000000044ff00                fflush
                0x000000000044ff10                memset
                0x000000000044ff20                inet_ntoa
                0x000000000044ff30                hstrerror
                0x000000000044ff40                if_nametoindex
                0x000000000044ff50                qsort
                0x000000000044ff60                perror
                0x000000000044ff70                __h_errno_location
                0x000000000044ff80                stime
                0x000000000044ff90                getservbyport
                0x000000000044ffa0                vfork
                0x000000000044ffb0                getuid
                0x000000000044ffc0                fprintf
                0x000000000044ffd0                recvmsg
                0x000000000044ffe0                fnmatch
                0x000000000044fff0                strcspn
                0x0000000000450000                shmctl
                0x0000000000450010                memcmp
                0x0000000000450020                vsnprintf
                0x0000000000450030                recvfrom
                0x0000000000450040                syslog
                0x0000000000450050                isprint
                0x0000000000450060                sigemptyset
                0x0000000000450070                sprintf
                0x0000000000450080                clearerr
                0x0000000000450090                socket
                0x00000000004500a0                fseek
                0x00000000004500b0                regcomp
                0x00000000004500c0                statfs
                0x00000000004500d0                isalpha
                0x00000000004500e0                exit
                0x00000000004500f0                rename
                0x0000000000450100                fork
                0x0000000000450110                getmntent
                0x0000000000450120                raise
                0x0000000000450130                isblank
                0x0000000000450140                fstat
                0x0000000000450150                strcmp
                0x0000000000450160                getgrgid
                0x0000000000450170                getopt
                0x0000000000450180                waitpid
                0x0000000000450190                execlp
                0x00000000004501a0                mount
                0x00000000004501b0                atoi
                0x00000000004501c0                strpbrk
                0x00000000004501d0                readdir
                0x00000000004501e0                alarm
                0x00000000004501f0                strchr
                0x0000000000450200                strtoll
                0x0000000000450210                getgid
                0x0000000000450220                strerror
                0x0000000000450230                isspace
                0x0000000000450240                listen
                0x0000000000450250                printf
                0x0000000000450260                getopt_long
                0x0000000000450270                getgrnam
                0x0000000000450280                getservbyname
                0x0000000000450290                strdup
                0x00000000004502a0                puts
                0x00000000004502b0                fscanf
                0x00000000004502c0                msgctl
                0x00000000004502d0                execvp
                0x00000000004502e0                signal
                0x00000000004502f0                umount
                0x0000000000450300                inet_ntop
                0x0000000000450310                reboot
                0x0000000000450320                gethostbyaddr
                0x0000000000450330                strsignal
                0x0000000000450340                pipe
                0x0000000000450350                sigsuspend
                0x0000000000450360                getaddrinfo
                0x0000000000450370                strcpy
                0x0000000000450380                kill
                0x0000000000450390                geteuid
                0x00000000004503a0                getgroups

.fini           0x00000000004503c0       0x54
 *(.fini)
 .fini          0x00000000004503c0       0x1c /opt/buildroot-be-gcc434/usr/lib/crti.o
                0x00000000004503c0                _fini
 .fini          0x00000000004503dc       0x2c /opt/toolchains/buildroot-be-gcc434-2013-0107/usr/bin/../lib/gcc/mips-unknown-linux-uclibc/4.3.4/crtbegin.o
 .fini          0x0000000000450408        0xc /opt/buildroot-be-gcc434/usr/lib/crtn.o
                0x0000000000450414                PROVIDE (__etext, .)
                0x0000000000450414                PROVIDE (_etext, .)
                0x0000000000450414                PROVIDE (etext, .)

.rodata         0x0000000000450420     0x7a30
 *(.rodata .rodata.* .gnu.linkonce.r.*)
 .rodata.str1.4
                0x0000000000450420      0x44a applets/built-in.o
                                        0x470 (size before relaxing)
 *fill*         0x000000000045086a        0x2 00
 .rodata.str1.4
                0x000000000045086c        0x2 coreutils/lib.a(cat.o)
                                          0x8 (size before relaxing)
 *fill*         0x000000000045086e        0x2 00
 .rodata.str1.4
                0x0000000000450870       0x19 coreutils/lib.a(chmod.o)
                                         0x20 (size before relaxing)
 *fill*         0x0000000000450889        0x3 00
 .rodata.str1.4
                0x000000000045088c       0x25 coreutils/lib.a(cp.o)
                                         0x28 (size before relaxing)
 *fill*         0x00000000004508b1        0x3 00
 .rodata.str1.4
                0x00000000004508b4       0xd6 coreutils/lib.a(date.o)
                                         0xe0 (size before relaxing)
 *fill*         0x000000000045098a        0x2 00
 .rodata.str1.4
                0x000000000045098c       0x92 coreutils/lib.a(df.o)
                                         0xa8 (size before relaxing)
 *fill*         0x0000000000450a1e        0x2 00
 .rodata.str1.4
                0x0000000000450a20      0x109 coreutils/lib.a(expr.o)
                                        0x128 (size before relaxing)
 .rodata.keywords.6643
                0x0000000000450b29       0x21 coreutils/lib.a(expr.o)
 *fill*         0x0000000000450b4a        0x2 00
 .rodata.str1.4
                0x0000000000450b4c       0x31 coreutils/lib.a(id.o)
                                         0x38 (size before relaxing)
 *fill*         0x0000000000450b7d        0x3 00
 .rodata.str1.4
                0x0000000000450b80        0xb coreutils/lib.a(ln.o)
                                         0x18 (size before relaxing)
 *fill*         0x0000000000450b8b        0x1 00
 .rodata.str1.4
                0x0000000000450b8c       0x6d coreutils/lib.a(ls.o)
                                         0x7c (size before relaxing)
 .rodata.ls_options
                0x0000000000450bf9       0x15 coreutils/lib.a(ls.o)
 *fill*         0x0000000000450c0e        0x2 00
 .rodata.opt_flags
                0x0000000000450c10       0x54 coreutils/lib.a(ls.o)
 .rodata.str1.4
                0x0000000000450c64        0x8 coreutils/lib.a(md5_sha1_sum.o)
                                          0xc (size before relaxing)
 .rodata.str1.4
                0x0000000000450c6c       0x16 coreutils/lib.a(mkdir.o)
                                         0x18 (size before relaxing)
 .rodata.str1.4
                0x0000000000000000        0x4 coreutils/lib.a(mknod.o)
 .rodata.modes_chars
                0x0000000000450c82        0x8 coreutils/lib.a(mknod.o)
 *fill*         0x0000000000450c8a        0x2 00
 .rodata.modes_cubp
                0x0000000000450c8c        0xc coreutils/lib.a(mknod.o)
 .rodata.str1.4
                0x0000000000450c98       0x53 coreutils/lib.a(mv.o)
                                         0x58 (size before relaxing)
 .rodata.fmt    0x0000000000450ceb       0x2e coreutils/lib.a(mv.o)
 *fill*         0x0000000000450d19        0x3 00
 .rodata.str1.4
                0x0000000000450d1c       0x10 coreutils/lib.a(nice.o)
                                         0x18 (size before relaxing)
 .rodata.str1.4
                0x0000000000450d2c        0x5 coreutils/lib.a(printf.o)
                                         0x10 (size before relaxing)
 *fill*         0x0000000000450d31        0x3 00
 .rodata.str1.4
                0x0000000000450d34       0x22 coreutils/lib.a(rm.o)
                                         0x2c (size before relaxing)
 *fill*         0x0000000000450d56        0x2 00
 .rodata.str1.4
                0x0000000000450d58       0x22 coreutils/lib.a(sort.o)
                                         0x2c (size before relaxing)
 .rodata.OPT_STR
                0x0000000000450d7a       0x18 coreutils/lib.a(sort.o)
 *fill*         0x0000000000450d92        0x2 00
 .rodata.str1.4
                0x0000000000450d94      0x3c6 coreutils/lib.a(stty.o)
                                        0x3e0 (size before relaxing)
 *fill*         0x000000000045115a        0x6 00
 .rodata        0x0000000000451160       0x80 coreutils/lib.a(stty.o)
 .rodata.stty_suffixes
                0x00000000004511e0       0x20 coreutils/lib.a(stty.o)
 .rodata.evenp  0x0000000000451200        0x6 coreutils/lib.a(stty.o)
 .rodata.parity
                0x0000000000451206        0x7 coreutils/lib.a(stty.o)
 .rodata.stty_oddp
                0x000000000045120d        0x5 coreutils/lib.a(stty.o)
 .rodata.stty_nl
                0x0000000000451212        0x3 coreutils/lib.a(stty.o)
 .rodata.stty_ek
                0x0000000000451215        0x3 coreutils/lib.a(stty.o)
 .rodata.stty_sane
                0x0000000000451218        0x5 coreutils/lib.a(stty.o)
 .rodata.cooked
                0x000000000045121d        0x7 coreutils/lib.a(stty.o)
 .rodata.raw    0x0000000000451224        0x4 coreutils/lib.a(stty.o)
 .rodata.stty_pass8
                0x0000000000451228        0x6 coreutils/lib.a(stty.o)
 .rodata.litout
                0x000000000045122e        0x7 coreutils/lib.a(stty.o)
 .rodata.cbreak
                0x0000000000451235        0x7 coreutils/lib.a(stty.o)
 .rodata.decctlq
                0x000000000045123c        0x8 coreutils/lib.a(stty.o)
 .rodata.stty_tabs
                0x0000000000451244        0x5 coreutils/lib.a(stty.o)
 .rodata.stty_lcase
                0x0000000000451249        0x6 coreutils/lib.a(stty.o)
 .rodata.stty_LCASE
                0x000000000045124f        0x6 coreutils/lib.a(stty.o)
 .rodata.stty_crt
                0x0000000000451255        0x4 coreutils/lib.a(stty.o)
 .rodata.stty_dec
                0x0000000000451259        0x4 coreutils/lib.a(stty.o)
 .rodata.tcflag_offsets.6423
                0x000000000045125d        0x4 coreutils/lib.a(stty.o)
 .rodata.stty_min
                0x0000000000451261        0x4 coreutils/lib.a(stty.o)
 .rodata.stty_time
                0x0000000000451265        0x5 coreutils/lib.a(stty.o)
 .rodata.params.6554
                0x000000000045126a       0x31 coreutils/lib.a(stty.o)
 *fill*         0x000000000045129b        0x1 00
 .rodata.C.14.6490
                0x000000000045129c        0x8 coreutils/lib.a(stty.o)
 .rodata.stty_eof
                0x00000000004512a4        0x4 coreutils/lib.a(stty.o)
 .rodata.stty_eol
                0x00000000004512a8        0x4 coreutils/lib.a(stty.o)
 .rodata.stty_swtch
                0x00000000004512ac        0x6 coreutils/lib.a(stty.o)
 *fill*         0x00000000004512b2        0x2 00
 .rodata.str1.4
                0x00000000004512b4       0x11 coreutils/lib.a(tail.o)
                                         0x14 (size before relaxing)
 .rodata.header_fmt
                0x00000000004512c5        0xd coreutils/lib.a(tail.o)
 *fill*         0x00000000004512d2        0x2 00
 .rodata.tail_suffixes
                0x00000000004512d4       0x20 coreutils/lib.a(tail.o)
 .rodata.str1.4
                0x00000000004512f4       0x74 coreutils/lib.a(test.o)
                                         0x80 (size before relaxing)
 .rodata.ops    0x0000000000451368       0xf0 coreutils/lib.a(test.o)
 .rodata.str1.4
                0x0000000000000000       0x74 coreutils/lib.a(touch.o)
                                          0x8 (size before relaxing)
 .rodata.str1.4
                0x0000000000451458        0xa coreutils/lib.a(tty.o)
                                          0xc (size before relaxing)
 *fill*         0x0000000000451462        0x2 00
 .rodata.str1.4
                0x0000000000451464       0x20 coreutils/lib.a(uname.o)
 .rodata.options
                0x0000000000451484        0x8 coreutils/lib.a(uname.o)
 .rodata.utsname_offset
                0x000000000045148c        0xc coreutils/lib.a(uname.o)
 .rodata.str1.4
                0x0000000000451498       0x1a coreutils/lib.a(wc.o)
                                         0x30 (size before relaxing)
 *fill*         0x00000000004514b2        0x2 00
 .rodata.str1.4
                0x00000000004514b4       0x11 coreutils/libcoreutils/lib.a(cp_mv_stat.o)
                                         0x14 (size before relaxing)
 *fill*         0x00000000004514c5        0x3 00
 .rodata.str1.4
                0x00000000004514c8        0x3 coreutils/libcoreutils/lib.a(getopt_mk_fifo_nod.o)
                                          0x4 (size before relaxing)
 *fill*         0x00000000004514cb        0x1 00
 .rodata.str1.4
                0x00000000004514cc       0x16 editors/lib.a(cmp.o)
                                         0x1c (size before relaxing)
 .rodata.fmt_l_opt
                0x00000000004514e2       0x15 editors/lib.a(cmp.o)
 .rodata.fmt_differ
                0x00000000004514f7       0x21 editors/lib.a(cmp.o)
 .rodata.fmt_eof
                0x0000000000451518       0x10 editors/lib.a(cmp.o)
 .rodata.str1.4
                0x0000000000451528      0x2b9 editors/lib.a(vi.o)
                                        0x2e8 (size before relaxing)
 *fill*         0x00000000004517e1        0x3 00
 .rodata.do_cmd
                0x00000000004517e4      0x254 editors/lib.a(vi.o)
 .rodata.SOs    0x0000000000451a38        0x5 editors/lib.a(vi.o)
 .rodata.SOn    0x0000000000451a3d        0x5 editors/lib.a(vi.o)
 .rodata.Ceos   0x0000000000451a42        0x5 editors/lib.a(vi.o)
 .rodata.bell   0x0000000000451a47        0x2 editors/lib.a(vi.o)
 .rodata.cmd_mode_indicator.7435
                0x0000000000451a49        0x5 editors/lib.a(vi.o)
 .rodata.CMrc   0x0000000000451a4e        0x9 editors/lib.a(vi.o)
 .rodata.Ceol   0x0000000000451a57        0x5 editors/lib.a(vi.o)
 .rodata.str1.4
                0x0000000000451a5c       0x15 findutils/lib.a(find.o)
                                         0x1c (size before relaxing)
 .rodata.options.6533
                0x0000000000451a71        0x9 findutils/lib.a(find.o)
 .rodata.params.6451
                0x0000000000451a7a       0x14 findutils/lib.a(find.o)
 *fill*         0x0000000000451a8e        0x2 00
 .rodata.str1.4
                0x0000000000451a90       0x55 findutils/lib.a(grep.o)
                                         0x64 (size before relaxing)
 *fill*         0x0000000000451ae5        0x3 00
 .rodata.str1.4
                0x0000000000451ae8        0xf init/lib.a(halt.o)
                                         0x10 (size before relaxing)
 *fill*         0x0000000000451af7        0x1 00
 .rodata.signals.6370
                0x0000000000451af8        0xc init/lib.a(halt.o)
 .rodata.magic.6369
                0x0000000000451b04        0xc init/lib.a(halt.o)
 .rodata.str1.4
                0x0000000000451b10      0x298 init/lib.a(init.o)
                                        0x2c8 (size before relaxing)
 .rodata.press_enter.6494
                0x0000000000451da8       0x2f init/lib.a(init.o)
 *fill*         0x0000000000451dd7        0x1 00
 .rodata.str1.4
                0x0000000000451dd8       0x41 libbb/lib.a(bb_pwd.o)
                                         0x48 (size before relaxing)
 *fill*         0x0000000000451e19        0x3 00
 .rodata.str1.4
                0x0000000000451e1c        0x7 libbb/lib.a(concat_path_file.o)
                                         0x10 (size before relaxing)
 *fill*         0x0000000000451e23        0x1 00
 .rodata.str1.4
                0x0000000000451e24      0x15e libbb/lib.a(copy_file.o)
                                        0x1a0 (size before relaxing)
 *fill*         0x0000000000451f82        0x2 00
 .rodata.str1.4
                0x0000000000451f84        0x5 libbb/lib.a(execable.o)
                                          0x8 (size before relaxing)
 .rodata.str1.4
                0x0000000000000000        0x4 libbb/lib.a(find_mount_point.o)
 *fill*         0x0000000000451f89        0x3 00
 .rodata.str1.4
                0x0000000000451f8c        0x5 libbb/lib.a(find_root_device.o)
                                          0x8 (size before relaxing)
 .rodata.str1.4
                0x0000000000000000        0x4 libbb/lib.a(getopt32.o)
 *fill*         0x0000000000451f91        0x3 00
 .rodata.bb_null_long_options
                0x0000000000451f94       0x10 libbb/lib.a(getopt32.o)
 .rodata.str1.4
                0x0000000000000000        0x4 libbb/lib.a(inode_hash.o)
 .rodata.str1.4
                0x0000000000451fa4       0x35 libbb/lib.a(make_directory.o)
                                         0x38 (size before relaxing)
 .rodata.S_array.6371
                0x0000000000451fd9       0x10 libbb/lib.a(md5.o)
 .rodata.P_array.6370
                0x0000000000451fe9       0x40 libbb/lib.a(md5.o)
 *fill*         0x0000000000452029        0x3 00
 .rodata.C_array.6369
                0x000000000045202c      0x100 libbb/lib.a(md5.o)
 .rodata.bb_banner
                0x000000000045212c       0x29 libbb/lib.a(messages.o)
                0x000000000045212c                bb_banner
 .rodata.bb_msg_memory_exhausted
                0x0000000000452155       0x11 libbb/lib.a(messages.o)
                0x0000000000452155                bb_msg_memory_exhausted
 .rodata.bb_msg_invalid_date
                0x0000000000452166       0x12 libbb/lib.a(messages.o)
                0x0000000000452166                bb_msg_invalid_date
 .rodata.bb_msg_write_error
                0x0000000000452178        0xc libbb/lib.a(messages.o)
                0x0000000000452178                bb_msg_write_error
 .rodata.bb_msg_read_error
                0x0000000000452184        0xb libbb/lib.a(messages.o)
                0x0000000000452184                bb_msg_read_error
 .rodata.bb_msg_can_not_create_raw_socket
                0x000000000045218f       0x18 libbb/lib.a(messages.o)
                0x000000000045218f                bb_msg_can_not_create_raw_socket
 .rodata.bb_msg_perm_denied_are_you_root
                0x00000000004521a7       0x23 libbb/lib.a(messages.o)
                0x00000000004521a7                bb_msg_perm_denied_are_you_root
 .rodata.bb_msg_requires_arg
                0x00000000004521ca       0x18 libbb/lib.a(messages.o)
                0x00000000004521ca                bb_msg_requires_arg
 .rodata.bb_msg_invalid_arg
                0x00000000004521e2       0x1e libbb/lib.a(messages.o)
                0x00000000004521e2                bb_msg_invalid_arg
 .rodata.bb_msg_standard_input
                0x0000000000452200        0xf libbb/lib.a(messages.o)
                0x0000000000452200                bb_msg_standard_input
 .rodata.bb_msg_standard_output
                0x000000000045220f       0x10 libbb/lib.a(messages.o)
                0x000000000045220f                bb_msg_standard_output
 .rodata.bb_str_default
                0x000000000045221f        0x8 libbb/lib.a(messages.o)
                0x000000000045221f                bb_str_default
 .rodata.bb_hexdigits_upcase
                0x0000000000452227       0x11 libbb/lib.a(messages.o)
                0x0000000000452227                bb_hexdigits_upcase
 .rodata.bb_dev_null
                0x0000000000452238        0xa libbb/lib.a(messages.o)
                0x0000000000452238                bb_dev_null
 .rodata.bb_default_login_shell
                0x0000000000452242        0x9 libbb/lib.a(messages.o)
                0x0000000000452242                bb_default_login_shell
 .rodata.bb_PATH_root_path
                0x000000000045224b       0x23 libbb/lib.a(messages.o)
                0x000000000045224b                bb_PATH_root_path
 *fill*         0x000000000045226e        0x2 00
 .rodata.const_int_1
                0x0000000000452270        0x4 libbb/lib.a(messages.o)
                0x0000000000452270                const_int_1
 .rodata.type_chars
                0x0000000000452274       0x10 libbb/lib.a(mode_string.o)
 .rodata.mode_chars
                0x0000000000452284        0x8 libbb/lib.a(mode_string.o)
 .rodata.bb_path_mtab_file
                0x000000000045228c        0xd libbb/lib.a(mtab_file.o)
                0x000000000045228c                bb_path_mtab_file
 .rodata.perm_chars.6367
                0x0000000000452299        0x7 libbb/lib.a(parse_mode.o)
 .rodata.who_chars.6366
                0x00000000004522a0        0x5 libbb/lib.a(parse_mode.o)
 *fill*         0x00000000004522a5        0x3 00
 .rodata.perm_mask.6365
                0x00000000004522a8       0x18 libbb/lib.a(parse_mode.o)
 .rodata.who_mask.6364
                0x00000000004522c0       0x10 libbb/lib.a(parse_mode.o)
 .rodata.charmap.6363
                0x00000000004522d0       0x12 libbb/lib.a(process_escape_sequence.o)
 *fill*         0x00000000004522e2        0x2 00
 .rodata.str1.4
                0x00000000004522e4        0xb libbb/lib.a(read.o)
                                         0x14 (size before relaxing)
 .rodata.str1.4
                0x0000000000000000        0x4 libbb/lib.a(recursive_action.o)
 *fill*         0x00000000004522ef        0x1 00
 .rodata.str1.4
                0x00000000004522f0       0x66 libbb/lib.a(remove_file.o)
                                         0xa4 (size before relaxing)
 *fill*         0x0000000000452356        0x2 00
 .rodata.speeds
                0x0000000000452358       0x50 libbb/lib.a(speed_table.o)
 .rodata.str1.4
                0x0000000000000000        0xc libbb/lib.a(verror_msg.o)
 .rodata.str1.4
                0x00000000004523a8        0x5 libbb/lib.a(vfork_daemon_rexec.o)
                                         0x10 (size before relaxing)
 *fill*         0x00000000004523ad        0x3 00
 .rodata.str1.4
                0x00000000004523b0       0x17 libbb/lib.a(warn_ignoring_args.o)
                                         0x18 (size before relaxing)
 .rodata.str1.4
                0x0000000000000000        0x4 libbb/lib.a(wfopen_input.o)
 *fill*         0x00000000004523c7        0x1 00
 .rodata.str1.4
                0x00000000004523c8       0x61 libbb/lib.a(xatonum.o)
                                         0x64 (size before relaxing)
 *fill*         0x0000000000452429        0x3 00
 .rodata.str1.4
                0x000000000045242c      0x116 libbb/lib.a(xfuncs.o)
                                        0x11c (size before relaxing)
 *fill*         0x0000000000452542        0x2 00
 .rodata.C.25.6718
                0x0000000000452544        0x8 libbb/lib.a(xfuncs.o)
 .rodata.str1.4
                0x000000000045254c        0x7 libbb/lib.a(xgetcwd.o)
                                          0x8 (size before relaxing)
 *fill*         0x0000000000452553        0x1 00
 .rodata.str1.4
                0x0000000000452554       0x26 libbb/lib.a(xreadlink.o)
                                         0x28 (size before relaxing)
 *fill*         0x000000000045257a        0x2 00
 .rodata.str1.4
                0x000000000045257c        0xd libbb/lib.a(xregcomp.o)
                                         0x10 (size before relaxing)
 .rodata.str1.4
                0x0000000000000000        0x4 libbb/lib.a(wfopen.o)
 *fill*         0x0000000000452589        0x3 00
 .rodata.str1.4
                0x000000000045258c       0xe4 miscutils/lib.a(time.o)
                                         0xf0 (size before relaxing)
 .rodata.time_main
                0x0000000000452670       0xd8 miscutils/lib.a(time.o)
 .rodata.default_format
                0x0000000000452748       0x17 miscutils/lib.a(time.o)
 .rodata.long_format
                0x000000000045275f      0x2cb miscutils/lib.a(time.o)
 .rodata.posix_format
                0x0000000000452a2a       0x17 miscutils/lib.a(time.o)
 *fill*         0x0000000000452a41        0x3 00
 .rodata.str1.4
                0x0000000000452a44        0xa miscutils/lib.a(watchdog.o)
                                         0x10 (size before relaxing)
 *fill*         0x0000000000452a4e        0x2 00
 .rodata.str1.4
                0x0000000000452a50       0x8d modutils/lib.a(insmod.o)
                                         0x94 (size before relaxing)
 *fill*         0x0000000000452add        0x3 00
 .rodata.str1.4
                0x0000000000452ae0       0x57 modutils/lib.a(lsmod.o)
                                         0x6c (size before relaxing)
 *fill*         0x0000000000452b37        0x1 00
 .rodata.str1.4
                0x0000000000452b38      0x225 modutils/lib.a(modprobe.o)
                                        0x260 (size before relaxing)
 *fill*         0x0000000000452d5d        0x3 00
 .rodata.str1.4
                0x0000000000452d60        0x4 modutils/lib.a(rmmod.o)
                                         0x10 (size before relaxing)
 .rodata.str1.4
                0x0000000000452d64      0x266 networking/lib.a(arp.o)
                                        0x274 (size before relaxing)
 *fill*         0x0000000000452fca        0x2 00
 .rodata.arp_main
                0x0000000000452fcc       0x40 networking/lib.a(arp.o)
 .rodata.options
                0x000000000045300c       0x2e networking/lib.a(arp.o)
 *fill*         0x000000000045303a        0x2 00
 .rodata.str1.4
                0x000000000045303c       0xeb networking/lib.a(ftpgetput.o)
                                         0xf4 (size before relaxing)
 *fill*         0x0000000000453127        0x1 00
 .rodata.str1.4
                0x0000000000453128      0x150 networking/lib.a(ifconfig.o)
                                        0x174 (size before relaxing)
 .rodata.str1.4
                0x0000000000453278      0x519 networking/lib.a(ifupdown.o)
                                        0x578 (size before relaxing)
 *fill*         0x0000000000453791        0x3 00
 .rodata.str1.4
                0x0000000000453794      0x4cd networking/lib.a(interface.o)
                                        0x4fc (size before relaxing)
 *fill*         0x0000000000453c61        0x1 00
 .rodata.ife_print_flags_mask.6987
                0x0000000000453c62       0x1a networking/lib.a(interface.o)
 .rodata.ife_print_flags_strs.6986
                0x0000000000453c7c       0x6a networking/lib.a(interface.o)
 .rodata.TRext  0x0000000000453ce6        0xf networking/lib.a(interface.o)
 .rodata.keywords.7149
                0x0000000000453cf5        0x6 networking/lib.a(ip.o)
 *fill*         0x0000000000453cfb        0x1 00
 .rodata.str1.4
                0x0000000000453cfc      0x46c networking/lib.a(netstat.o)
                                        0x488 (size before relaxing)
 .rodata.unix_do_one
                0x0000000000454168       0x28 networking/lib.a(netstat.o)
 .rodata.str1.4
                0x0000000000454190      0x30b networking/lib.a(ping.o)
                                        0x30c (size before relaxing)
 *fill*         0x000000000045449b        0x1 00
 .rodata.ping4  0x000000000045449c       0x4c networking/lib.a(ping.o)
 .rodata.str1.4
                0x00000000004544e8      0x27f networking/lib.a(route.o)
                                        0x2a0 (size before relaxing)
 .rodata.tbl_verb
                0x0000000000454767       0x15 networking/lib.a(route.o)
 .rodata.flagvals
                0x000000000045477c       0x20 networking/lib.a(route.o)
 .rodata.flagchars
                0x000000000045479c        0x9 networking/lib.a(route.o)
 .rodata.tbl_ipvx
                0x00000000004547a5       0x68 networking/lib.a(route.o)
 *fill*         0x000000000045480d        0x3 00
 .rodata.flags_ipvx
                0x0000000000454810       0x10 networking/lib.a(route.o)
 .rodata.tbl_hash_net_host
                0x0000000000454820        0xf networking/lib.a(route.o)
 *fill*         0x000000000045482f        0x1 00
 .rodata.str1.4
                0x0000000000454830      0x157 networking/lib.a(tftp.o)
                                        0x1a4 (size before relaxing)
 *fill*         0x0000000000454987        0x1 00
 .rodata.str1.4
                0x0000000000454988       0x27 networking/lib.a(vconfig.o)
                                         0x28 (size before relaxing)
 .rodata.conf_file_name
                0x00000000004549af       0x16 networking/lib.a(vconfig.o)
 .rodata.cmds   0x00000000004549c5       0x50 networking/lib.a(vconfig.o)
 .rodata.name_types
                0x0000000000454a15       0x4c networking/lib.a(vconfig.o)
 *fill*         0x0000000000454a61        0x3 00
 .rodata.str1.4
                0x0000000000454a64       0x14 networking/libiproute/lib.a(ip_parse_common_args.o)
 .rodata.ip_common_commands.7124
                0x0000000000454a78       0x2b networking/libiproute/lib.a(ip_parse_common_args.o)
 *fill*         0x0000000000454aa3        0x1 00
 .rodata.str1.4
                0x0000000000454aa4       0x84 networking/libiproute/lib.a(iplink.o)
                                         0xe4 (size before relaxing)
 .rodata.keywords.7417
                0x0000000000454b28       0x13 networking/libiproute/lib.a(iplink.o)
 .rodata.keywords.7374
                0x0000000000454b3b       0x30 networking/libiproute/lib.a(iplink.o)
 *fill*         0x0000000000454b6b        0x1 00
 .rodata.str1.4
                0x0000000000454b6c       0x22 networking/libiproute/lib.a(ll_addr.o)
                                         0x24 (size before relaxing)
 *fill*         0x0000000000454b8e        0x2 00
 .rodata.str1.4
                0x0000000000454b90      0x12d networking/libiproute/lib.a(utils.o)
                                        0x134 (size before relaxing)
 *fill*         0x0000000000454cbd        0x3 00
 .rodata.str1.4
                0x0000000000454cc0      0x2ab networking/libiproute/lib.a(ipaddress.o)
                                        0x2ec (size before relaxing)
 *fill*         0x0000000000454f6b        0x1 00
 .rodata.ipaddr_list_or_flush
                0x0000000000454f6c       0x14 networking/libiproute/lib.a(ipaddress.o)
 .rodata.option.7630
                0x0000000000454f80       0x17 networking/libiproute/lib.a(ipaddress.o)
 *fill*         0x0000000000454f97        0x1 00
 .rodata.str1.4
                0x0000000000454f98      0x14c networking/libiproute/lib.a(libnetlink.o)
 .rodata.str1.4
                0x00000000004550e4       0x1d networking/libiproute/lib.a(ll_map.o)
                                         0x24 (size before relaxing)
 *fill*         0x0000000000455101        0x3 00
 .rodata.str1.4
                0x0000000000455104      0x1c5 networking/libiproute/lib.a(ll_types.o)
                                        0x1e8 (size before relaxing)
 *fill*         0x00000000004552c9        0x3 00
 .rodata.str1.4
                0x00000000004552cc      0x115 networking/libiproute/lib.a(rt_names.o)
                                        0x13c (size before relaxing)
 *fill*         0x00000000004553e1        0x3 00
 .rodata.str1.4
                0x00000000004553e4       0x9f procps/lib.a(kill.o)
                                         0xa4 (size before relaxing)
 *fill*         0x0000000000455483        0x1 00
 .rodata.str1.4
                0x0000000000455484        0x4 procps/lib.a(pidof.o)
                                          0x8 (size before relaxing)
 .rodata.str1.4
                0x0000000000455488       0x49 procps/lib.a(ps.o)
                                         0x4c (size before relaxing)
 *fill*         0x00000000004554d1        0x3 00
 .rodata.str1.4
                0x00000000004554d4        0xf procps/lib.a(sysctl.o)
                                         0x24 (size before relaxing)
 .rodata.DEFAULT_PRELOAD
                0x00000000004554e3       0x11 procps/lib.a(sysctl.o)
 .rodata.PROC_PATH
                0x00000000004554f4        0xb procps/lib.a(sysctl.o)
 .rodata.ERR_UNKNOWN_PARAMETER
                0x00000000004554ff       0x1f procps/lib.a(sysctl.o)
 .rodata.ERR_PRELOAD_FILE
                0x000000000045551e       0x26 procps/lib.a(sysctl.o)
 .rodata.WARN_BAD_LINE
                0x0000000000455544       0x30 procps/lib.a(sysctl.o)
 .rodata.ERR_NO_EQUALS
                0x0000000000455574       0x2c procps/lib.a(sysctl.o)
 .rodata.ERR_MALFORMED_SETTING
                0x00000000004555a0       0x1f procps/lib.a(sysctl.o)
 .rodata.ERR_INVALID_KEY
                0x00000000004555bf       0x1f procps/lib.a(sysctl.o)
 .rodata.ERR_PERMISSION_DENIED
                0x00000000004555de       0x26 procps/lib.a(sysctl.o)
 .rodata.ERR_UNKNOWN_WRITING
                0x0000000000455604       0x2a procps/lib.a(sysctl.o)
 .rodata.ERR_UNKNOWN_READING
                0x000000000045562e       0x2a procps/lib.a(sysctl.o)
 .rodata.str1.4
                0x0000000000455658      0x21d procps/lib.a(top.o)
                                        0x234 (size before relaxing)
 *fill*         0x0000000000455875        0x3 00
 .rodata.str1.4
                0x0000000000455878       0x67 procps/lib.a(uptime.o)
                                         0x70 (size before relaxing)
 *fill*         0x00000000004558df        0x1 00
 .rodata.str1.4
                0x00000000004558e0      0xae0 shell/lib.a(ash.o)
                                        0xb84 (size before relaxing)
 .rodata.calcsize
                0x00000000004563c0       0x68 shell/lib.a(ash.o)
 .rodata.cmdtxt
                0x0000000000456428       0x68 shell/lib.a(ash.o)
 .rodata.copynode
                0x0000000000456490       0x68 shell/lib.a(ash.o)
 .rodata.parse_command
                0x00000000004564f8       0x68 shell/lib.a(ash.o)
 .rodata.readtoken1
                0x0000000000456560       0x3c shell/lib.a(ash.o)
 .rodata.redirect
                0x000000000045659c       0x24 shell/lib.a(ash.o)
 .rodata.evaltree
                0x00000000004565c0       0x3c shell/lib.a(ash.o)
 .rodata.argstr
                0x00000000004565fc       0x20 shell/lib.a(ash.o)
 .rodata.defifsvar
                0x000000000045661c        0x8 shell/lib.a(ash.o)
 .rodata.illnum
                0x0000000000456624       0x13 shell/lib.a(ash.o)
 *fill*         0x0000000000456637        0x9 00
 .rodata        0x0000000000456640       0x80 shell/lib.a(ash.o)
 .rodata.syntax_index_table
                0x00000000004566c0      0x104 shell/lib.a(ash.o)
 .rodata.S_I_T  0x00000000004567c4       0x38 shell/lib.a(ash.o)
 .rodata.types.11463
                0x00000000004567fc        0x6 shell/lib.a(ash.o)
 .rodata.xxreadtoken_chars
                0x0000000000456802        0x7 shell/lib.a(ash.o)
 .rodata.xxreadtoken_tokens
                0x0000000000456809        0xa shell/lib.a(ash.o)
 .rodata.dolatstr
                0x0000000000456813        0x5 shell/lib.a(ash.o)
 .rodata.permmask.12200
                0x0000000000456818       0x12 shell/lib.a(ash.o)
 .rodata.permmode.12199
                0x000000000045682a        0x3 shell/lib.a(ash.o)
 .rodata.permuser.12198
                0x000000000045682d        0x3 shell/lib.a(ash.o)
 .rodata.timescmd_str
                0x0000000000456830        0x9 shell/lib.a(ash.o)
 .rodata.snlfmt
                0x0000000000456839        0x4 shell/lib.a(ash.o)
 .rodata.op_tokens
                0x000000000045683d       0x8d shell/lib.a(ash.o)
 .rodata.homestr
                0x00000000004568ca        0x5 shell/lib.a(ash.o)
 .rodata.qchars.8533
                0x00000000004568cf        0x3 shell/lib.a(ash.o)
 .rodata.spclchars.8788
                0x00000000004568d2        0xa shell/lib.a(ash.o)
 .rodata.vstype.8089
                0x00000000004568dc       0x40 shell/lib.a(ash.o)
 .rodata.metachars.9274
                0x000000000045691c        0x4 shell/lib.a(ash.o)
 .rodata.nodesize
                0x0000000000456920       0x34 shell/lib.a(ash.o)
 .rodata.str1.4
                0x0000000000456954       0x31 sysklogd/lib.a(logger.o)
                                         0x3c (size before relaxing)
 *fill*         0x0000000000456985        0x3 00
 .rodata.str1.4
                0x0000000000456988      0x2a6 sysklogd/lib.a(syslogd.o)
                                        0x2f4 (size before relaxing)
 *fill*         0x0000000000456c2e        0x2 00
 .rodata.str1.4
                0x0000000000456c30       0x10 util-linux/lib.a(dmesg.o)
 .rodata.str1.4
                0x0000000000456c40      0x110 util-linux/lib.a(hexdump.o)
                                        0x114 (size before relaxing)
 .rodata.hexdump_opts
                0x0000000000456d50       0x10 util-linux/lib.a(hexdump.o)
 .rodata.add_first
                0x0000000000456d60        0xc util-linux/lib.a(hexdump.o)
 .rodata.suffixes
                0x0000000000456d6c       0x20 util-linux/lib.a(hexdump.o)
 .rodata.str1.4
                0x0000000000456d8c      0x976 util-linux/lib.a(ipcs.o)
                                        0x9bc (size before relaxing)
 *fill*         0x0000000000457702        0x2 00
 .rodata.ipcs_main
                0x0000000000457704       0x3c util-linux/lib.a(ipcs.o)
 .rodata.str1.4
                0x0000000000457740      0x1a8 util-linux/lib.a(mount.o)
                                        0x1dc (size before relaxing)
 .rodata.filesystems.7142
                0x00000000004578e8       0x24 util-linux/lib.a(mount.o)
 .rodata.str1.4
                0x000000000045790c       0x75 util-linux/lib.a(umount.o)
                                         0x7c (size before relaxing)
 *fill*         0x0000000000457981        0x3 00
 .rodata.str1.4
                0x0000000000457984        0xa libbb/lib.a(create_icmp6_socket.o)
                                          0xc (size before relaxing)
 *fill*         0x000000000045798e        0x2 00
 .rodata.str1.4
                0x0000000000457990        0x5 libbb/lib.a(create_icmp_socket.o)
                                          0x8 (size before relaxing)
 *fill*         0x0000000000457995        0x3 00
 .rodata.str1.4
                0x0000000000457998       0xe1 libbb/lib.a(dump.o)
                                         0xf8 (size before relaxing)
 .rodata.conv_str
                0x0000000000457a79       0x21 libbb/lib.a(dump.o)
 .rodata.index_str
                0x0000000000457a9a       0x10 libbb/lib.a(dump.o)
 .rodata.lcc    0x0000000000457aaa        0x7 libbb/lib.a(dump.o)
 .rodata.list.6696
                0x0000000000457ab1       0x7f libbb/lib.a(dump.o)
 .rodata.size_conv_str
                0x0000000000457b30       0x19 libbb/lib.a(dump.o)
 *fill*         0x0000000000457b49        0x3 00
 .rodata.str1.4
                0x0000000000457b4c       0x28 libbb/lib.a(inet_common.o)
                                         0x2c (size before relaxing)
 .rodata.str1.4
                0x0000000000457b74       0x4b libbb/lib.a(lineedit.o)
                                         0x5c (size before relaxing)
 *fill*         0x0000000000457bbf        0x1 00
 .rodata.str1.4
                0x0000000000457bc0       0x13 libbb/lib.a(loop.o)
                                         0x14 (size before relaxing)
 *fill*         0x0000000000457bd3        0x1 00
 .rodata.str1.4
                0x0000000000457bd4       0x25 libbb/lib.a(procps.o)
                                         0x44 (size before relaxing)
 *fill*         0x0000000000457bf9        0x3 00
 .rodata.str1.4
                0x0000000000457bfc       0x20 libbb/lib.a(time.o)
 .rodata.str1.4
                0x0000000000457c1c        0x6 libbb/lib.a(trim.o)
                                          0x8 (size before relaxing)
 *fill*         0x0000000000457c22        0x2 00
 .rodata.str1.4
                0x0000000000457c24        0x4 libbb/lib.a(u_signal_names.o)
 .rodata.signals
                0x0000000000457c28       0xe0 libbb/lib.a(u_signal_names.o)
 .rodata.str1.4
                0x0000000000457d08       0x44 libbb/lib.a(xconnect.o)
                                         0x4c (size before relaxing)
 *fill*         0x0000000000457d4c        0x4 00
 .rodata        0x0000000000457d50      0x100 /opt/toolchains/buildroot-be-gcc434-2013-0107/usr/bin/../lib/gcc/mips-unknown-linux-uclibc/4.3.4/libgcc.a(_clz.o)
                0x0000000000457d50                __clz_tab

.rodata1
 *(.rodata1)

.sdata2
 *(.sdata2 .sdata2.* .gnu.linkonce.s2.*)

.sbss2
 *(.sbss2 .sbss2.* .gnu.linkonce.sb2.*)

.eh_frame_hdr   0x0000000000457e50       0x14
 *(.eh_frame_hdr)
 .eh_frame_hdr  0x0000000000457e50       0x14 /opt/toolchains/buildroot-be-gcc434-2013-0107/usr/bin/../lib/gcc/mips-unknown-linux-uclibc/4.3.4/libgcc.a(_udivdi3.o)

.eh_frame
 *(.eh_frame)

.gcc_except_table
 *(.gcc_except_table .gcc_except_table.*)
                0x0000000000457e64                . = (ALIGN (0x10000) - ((0x10000 - .) & 0xffff))
                0x0000000000468000                . = (0x10000 DATA_SEGMENT_ALIGN 0x1000)

.eh_frame       0x0000000000468000       0x24
 *(.eh_frame)
 .eh_frame      0x0000000000468000        0x0 /opt/toolchains/buildroot-be-gcc434-2013-0107/usr/bin/../lib/gcc/mips-unknown-linux-uclibc/4.3.4/crtbegin.o
 .eh_frame      0x0000000000468000       0x20 /opt/toolchains/buildroot-be-gcc434-2013-0107/usr/bin/../lib/gcc/mips-unknown-linux-uclibc/4.3.4/libgcc.a(_udivdi3.o)
 .eh_frame      0x0000000000468020        0x4 /opt/toolchains/buildroot-be-gcc434-2013-0107/usr/bin/../lib/gcc/mips-unknown-linux-uclibc/4.3.4/crtend.o

.gcc_except_table
 *(.gcc_except_table .gcc_except_table.*)

.tdata
 *(.tdata .tdata.* .gnu.linkonce.td.*)

.tbss
 *(.tbss .tbss.* .gnu.linkonce.tb.*)
 *(.tcommon)

.preinit_array  0x0000000000468024        0x0
                0x0000000000468024                PROVIDE (__preinit_array_start, .)
 *(.preinit_array)
                0x0000000000468024                PROVIDE (__preinit_array_end, .)

.init_array     0x0000000000468024        0x0
                0x0000000000468024                PROVIDE (__init_array_start, .)
 *(SORT(.init_array.*))
 *(.init_array)
                0x0000000000468024                PROVIDE (__init_array_end, .)

.fini_array     0x0000000000468024        0x0
                0x0000000000468024                PROVIDE (__fini_array_start, .)
 *(.fini_array)
 *(SORT(.fini_array.*))
                0x0000000000468024                PROVIDE (__fini_array_end, .)

.ctors          0x0000000000468024        0x8
 *crtbegin.o(.ctors)
 .ctors         0x0000000000468024        0x4 /opt/toolchains/buildroot-be-gcc434-2013-0107/usr/bin/../lib/gcc/mips-unknown-linux-uclibc/4.3.4/crtbegin.o
 *crtbegin?.o(.ctors)
 *(EXCLUDE_FILE(*crtend?.o *crtend.o) .ctors)
 *(SORT(.ctors.*))
 *(.ctors)
 .ctors         0x0000000000468028        0x4 /opt/toolchains/buildroot-be-gcc434-2013-0107/usr/bin/../lib/gcc/mips-unknown-linux-uclibc/4.3.4/crtend.o

.dtors          0x000000000046802c        0x8
 *crtbegin.o(.dtors)
 .dtors         0x000000000046802c        0x4 /opt/toolchains/buildroot-be-gcc434-2013-0107/usr/bin/../lib/gcc/mips-unknown-linux-uclibc/4.3.4/crtbegin.o
 *crtbegin?.o(.dtors)
 *(EXCLUDE_FILE(*crtend?.o *crtend.o) .dtors)
 *(SORT(.dtors.*))
 *(.dtors)
 .dtors         0x0000000000468030        0x4 /opt/toolchains/buildroot-be-gcc434-2013-0107/usr/bin/../lib/gcc/mips-unknown-linux-uclibc/4.3.4/crtend.o
                0x0000000000468030                __DTOR_END__

.jcr            0x0000000000468034        0x4
 *(.jcr)
 .jcr           0x0000000000468034        0x0 /opt/toolchains/buildroot-be-gcc434-2013-0107/usr/bin/../lib/gcc/mips-unknown-linux-uclibc/4.3.4/crtbegin.o
 .jcr           0x0000000000468034        0x4 /opt/toolchains/buildroot-be-gcc434-2013-0107/usr/bin/../lib/gcc/mips-unknown-linux-uclibc/4.3.4/crtend.o

.data.rel.ro    0x0000000000468038     0x15c0
 *(.data.rel.ro.local* .gnu.linkonce.d.rel.ro.local.*)
 .data.rel.ro.local.argv_dash.6363
                0x0000000000468038        0x8 coreutils/lib.a(cat.o)
 .data.rel.ro.local.dotdir.6808
                0x0000000000468040        0x4 coreutils/lib.a(ls.o)
 .data.rel.ro.local.mode_info
                0x0000000000468044      0x550 coreutils/lib.a(stty.o)
 .data.rel.ro.local.control_info
                0x0000000000468594       0x88 coreutils/lib.a(stty.o)
 .data.rel.ro.local.esccmds.7186
                0x000000000046861c      0x108 editors/lib.a(vi.o)
 .data.rel.ro.local.actions
                0x0000000000468724       0x48 init/lib.a(init.o)
 .data.rel.ro.local.rm_a_dummy.6862
                0x000000000046876c       0x14 modutils/lib.a(modprobe.o)
 .data.rel.ro.local.OptArray
                0x0000000000468780       0x98 networking/lib.a(ifconfig.o)
 .data.rel.ro.local.Arg1Opt
                0x0000000000468818       0x84 networking/lib.a(ifconfig.o)
 .data.rel.ro.local.addr_fams.6686
                0x000000000046889c        0x8 networking/lib.a(ifupdown.o)
 .data.rel.ro.local.addr_inet
                0x00000000004688a4        0xc networking/lib.a(ifupdown.o)
 .data.rel.ro.local.methods
                0x00000000004688b0       0x54 networking/lib.a(ifupdown.o)
 .data.rel.ro.local.ss_fmt
                0x0000000000468904        0xc networking/lib.a(interface.o)
 .data.rel.ro.local.if_port_text
                0x0000000000468910       0x20 networking/lib.a(interface.o)
 .data.rel.ro.local.aftypes
                0x0000000000468930       0x10 networking/lib.a(interface.o)
 .data.rel.ro.local.hwtypes
                0x0000000000468940       0x18 networking/lib.a(interface.o)
 .data.rel.ro.local.inet_aftype
                0x0000000000468958       0x2c networking/lib.a(interface.o)
 .data.rel.ro.local.inet6_aftype
                0x0000000000468984       0x2c networking/lib.a(interface.o)
 .data.rel.ro.local.unspec_aftype
                0x00000000004689b0       0x2c networking/lib.a(interface.o)
 .data.rel.ro.local.loop_hwtype
                0x00000000004689dc       0x20 networking/lib.a(interface.o)
 .data.rel.ro.local.ether_hwtype
                0x00000000004689fc       0x20 networking/lib.a(interface.o)
 .data.rel.ro.local.ppp_hwtype
                0x0000000000468a1c       0x20 networking/lib.a(interface.o)
 .data.rel.ro.local.unspec_hwtype
                0x0000000000468a3c       0x20 networking/lib.a(interface.o)
 .data.rel.ro.local.sit_hwtype
                0x0000000000468a5c       0x20 networking/lib.a(interface.o)
 .data.rel.ro.local.net_conn_line
                0x0000000000468a7c        0x4 networking/lib.a(netstat.o)
 .data.rel.ro.local.tcp_state
                0x0000000000468a80       0x30 networking/lib.a(netstat.o)
 .data.rel.ro.local.errcode_str.6679
                0x0000000000468ab0       0x24 networking/lib.a(tftp.o)
 .data.rel.ro.local.arphrd_names.6675
                0x0000000000468ad4      0x1f0 networking/libiproute/lib.a(ll_types.o)
 .data.rel.ro.local.optletters_optnames
                0x0000000000468cc4       0x38 shell/lib.a(ash.o)
 .data.rel.ro.local.tokname_array
                0x0000000000468cfc       0x74 shell/lib.a(ash.o)
 .data.rel.ro.local.builtintab
                0x0000000000468d70      0x130 shell/lib.a(ash.o)
 .data.rel.ro.local.limits
                0x0000000000468ea0       0xc0 shell/lib.a(ash.o)
 .data.rel.ro.local.bltin.10437
                0x0000000000468f60        0x8 shell/lib.a(ash.o)
 .data.rel.ro.local.prioritynames
                0x0000000000468f68       0x68 sysklogd/lib.a(syslogd.o)
                0x0000000000468f68                prioritynames
 .data.rel.ro.local.facilitynames
                0x0000000000468fd0       0xb8 sysklogd/lib.a(syslogd.o)
                0x0000000000468fd0                facilitynames
 .data.rel.ro.local.init_data
                0x0000000000469088       0x14 sysklogd/lib.a(syslogd.o)
 .data.rel.ro.local.logger_info
                0x000000000046909c       0xa0 sysklogd/lib.a(syslogd.o)
 .data.rel.ro.local.add_strings
                0x000000000046913c       0x14 util-linux/lib.a(hexdump.o)
 .data.rel.ro.local.mount_options
                0x0000000000469150       0xf8 util-linux/lib.a(mount.o)
 *(.data.rel.ro* .gnu.linkonce.d.rel.ro.*)
 .data.rel.ro.applets
                0x0000000000469248      0x39c applets/built-in.o
                0x0000000000469248                applets
 .data.rel.ro.environment
                0x00000000004695e4       0x14 init/lib.a(init.o)
                0x00000000004695f8                . = (. DATA_SEGMENT_RELRO_END 0x0)

.data           0x0000000000469600       0xfc
                0x0000000000469600                _fdata = .
 *(.data .data.* .gnu.linkonce.d.*)
 .data          0x0000000000469600       0x10 applets/built-in.o
                0x0000000000469600                bb_errno
 .data.max_col  0x0000000000469610        0x4 coreutils/lib.a(stty.o)
                0x0000000000469610                max_col
 .data.rel.device_name
                0x0000000000469614        0x4 coreutils/lib.a(stty.o)
 .data.last_file_modified
                0x0000000000469618        0x1 editors/lib.a(vi.o)
 *fill*         0x0000000000469619        0x3 00
 .data.recurse_flags
                0x000000000046961c        0x4 findutils/lib.a(find.o)
 .data.need_print
                0x0000000000469620        0x1 findutils/lib.a(find.o)
 *fill*         0x0000000000469621        0x3 00
 .data.rel.local.log_console
                0x0000000000469624        0x4 init/lib.a(init.o)
 .data.log_fd.6398
                0x0000000000469628        0x4 init/lib.a(init.o)
 .data.xfunc_error_retval
                0x000000000046962c        0x4 libbb/lib.a(default_error_retval.o)
                0x000000000046962c                xfunc_error_retval
 .data          0x0000000000469630       0x10 libbb/lib.a(messages.o)
                0x0000000000469630                ptr_to_globals
 .data.logmode  0x0000000000469640        0x1 libbb/lib.a(verror_msg.o)
                0x0000000000469640                logmode
 *fill*         0x0000000000469641        0x3 00
 .data.rel.local.msg_eol
                0x0000000000469644        0x4 libbb/lib.a(verror_msg.o)
                0x0000000000469644                msg_eol
 .data.rel.local.device
                0x0000000000469648        0x4 networking/lib.a(arp.o)
 .data.rel.local.ip_func
                0x000000000046964c        0x4 networking/lib.a(ip.o)
 .data.flags    0x0000000000469650        0x1 networking/lib.a(netstat.o)
 *fill*         0x0000000000469651        0x3 00
 .data.gTimeout
                0x0000000000469654        0x4 networking/lib.a(tftp.o)
 .data.fd.6607  0x0000000000469658        0x4 networking/lib.a(tftp.o)
 .data.rel.local.parsefile
                0x000000000046965c        0x4 shell/lib.a(ash.o)
 .data.plinno   0x0000000000469660        0x4 shell/lib.a(ash.o)
 .data.rel.local.stackp
                0x0000000000469664        0x4 shell/lib.a(ash.o)
 .data.rel.local.stacknxt
                0x0000000000469668        0x4 shell/lib.a(ash.o)
 .data.stacknleft
                0x000000000046966c        0x4 shell/lib.a(ash.o)
 .data.rel.local.sstrend
                0x0000000000469670        0x4 shell/lib.a(ash.o)
 .data.rel.varinit
                0x0000000000469674       0x60 shell/lib.a(ash.o)
 .data.builtinloc
                0x00000000004696d4        0x4 shell/lib.a(ash.o)
 .data.rel.local.curdir
                0x00000000004696d8        0x4 shell/lib.a(ash.o)
 .data.rel.local.physdir
                0x00000000004696dc        0x4 shell/lib.a(ash.o)
 .data.ttyfd    0x00000000004696e0        0x4 shell/lib.a(ash.o)
 .data.herefd   0x00000000004696e4        0x4 shell/lib.a(ash.o)
 .data.doLogSize
                0x00000000004696e8        0x4 sysklogd/lib.a(syslogd.o)
 .data.bb_dump_vflag
                0x00000000004696ec        0x4 libbb/lib.a(dump.o)
                0x00000000004696ec                bb_dump_vflag
 .data.bb_dump_length
                0x00000000004696f0        0x4 libbb/lib.a(dump.o)
                0x00000000004696f0                bb_dump_length
 .data.ateof.6607
                0x00000000004696f4        0x1 libbb/lib.a(dump.o)
 *fill*         0x00000000004696f5        0x3 00
 .data.cmdedit_termw
                0x00000000004696f8        0x4 libbb/lib.a(lineedit.o)

.rld_map        0x00000000004696fc        0x4
 .rld_map       0x00000000004696fc        0x4 /opt/buildroot-be-gcc434/usr/lib/crt1.o
                0x00000000004696fc                __RLD_MAP

.data1
 *(.data1)

.got.plt        0x0000000000469700        0x0
 *(.got.plt)
 .got.plt       0x0000000000000000        0x0 /opt/buildroot-be-gcc434/usr/lib/crt1.o
                0x0000000000469700                . = .
                0x00000000004716f0                _gp = (ALIGN (0x10) + 0x7ff0)

.got            0x0000000000469700      0x844
 *(.got)
 .got           0x0000000000469700      0x844 /opt/buildroot-be-gcc434/usr/lib/crt1.o
                0x0000000000469700                _GLOBAL_OFFSET_TABLE_

.sdata
 *(.sdata .sdata.* .gnu.linkonce.s.*)

.lit8
 *(.lit8)

.lit4
 *(.lit4)
                0x0000000000469f44                _edata = .
                0x0000000000469f44                PROVIDE (edata, .)
                0x0000000000469f44                __bss_start = .
                0x0000000000469f44                _fbss = .

.sbss           0x0000000000469f44       0x2c
 *(.dynsbss)
 *(.sbss .sbss.* .gnu.linkonce.sb.*)
 .sbss          0x0000000000469f44        0x0 applets/built-in.o
 *(.scommon)
 .scommon       0x0000000000469f44        0x8 applets/built-in.o
                0x0000000000469f44                applet_name
                0x0000000000469f48                current_applet
 .scommon       0x0000000000469f4c        0x4 libbb/lib.a(error_msg_and_die.o)
                0x0000000000469f4c                die_sleep
 .scommon       0x0000000000469f50        0xc libbb/lib.a(getopt32.o)
                0x0000000000469f50                option_mask32
                0x0000000000469f54                opt_complementary
                0x0000000000469f58                applet_long_options
 .scommon       0x0000000000469f5c        0x4 libbb/lib.a(messages.o)
                0x0000000000469f5c                const_int_0
 .scommon       0x0000000000469f60        0x1 networking/lib.a(interface.o)
                0x0000000000469f60                interface_opt_a
 .scommon       0x0000000000469f61        0x2 networking/libiproute/lib.a(ip_parse_common_args.o)
                0x0000000000469f61                _SL_
                0x0000000000469f62                oneline
 *fill*         0x0000000000469f63        0x1 00
 .scommon       0x0000000000469f64        0xc libbb/lib.a(dump.o)
                0x0000000000469f64                bb_dump_skip
                0x0000000000469f68                bb_dump_blocksize
                0x0000000000469f6c                bb_dump_fshead

.bss            0x0000000000469f70     0x1cc0
 *(.dynbss)
 .dynbss        0x0000000000000000        0x0 /opt/buildroot-be-gcc434/usr/lib/crt1.o
 *(.bss .bss.* .gnu.linkonce.b.*)
 .bss           0x0000000000469f70       0x20 /opt/toolchains/buildroot-be-gcc434-2013-0107/usr/bin/../lib/gcc/mips-unknown-linux-uclibc/4.3.4/crtbegin.o
 .bss.ruid      0x0000000000469f90        0x4 applets/built-in.o
 .bss.status    0x0000000000469f94        0x4 coreutils/lib.a(ls.o)
 .bss.all_fmt   0x0000000000469f98        0x4 coreutils/lib.a(ls.o)
 .bss.current_time_t
                0x0000000000469f9c        0x4 coreutils/lib.a(ls.o)
 .bss.t_wp      0x0000000000469fa0        0x4 coreutils/lib.a(test.o)
 .bss.t_wp_op   0x0000000000469fa4        0x4 coreutils/lib.a(test.o)
 .bss.group_array
                0x0000000000469fa8        0x4 coreutils/lib.a(test.o)
 .bss.ngroups   0x0000000000469fac        0x4 coreutils/lib.a(test.o)
 .bss.leaving   0x0000000000469fb0       0x80 coreutils/lib.a(test.o)
 .bss.c.7237    0x000000000046a030        0x1 editors/lib.a(vi.o)
 *fill*         0x000000000046a031        0x3 00
 .bss.obufp.7243
                0x000000000046a034        0x4 editors/lib.a(vi.o)
 .bss.old_offset.7500
                0x000000000046a038        0x4 editors/lib.a(vi.o)
 .bss.tot.7434  0x000000000046a03c        0x4 editors/lib.a(vi.o)
 .bss.vi_setops
                0x000000000046a040        0x1 editors/lib.a(vi.o)
 .bss.editing   0x000000000046a041        0x1 editors/lib.a(vi.o)
 .bss.cmd_mode  0x000000000046a042        0x1 editors/lib.a(vi.o)
 .bss.file_modified
                0x000000000046a043        0x1 editors/lib.a(vi.o)
 .bss.fn_start  0x000000000046a044        0x4 editors/lib.a(vi.o)
 .bss.save_argc
                0x000000000046a048        0x4 editors/lib.a(vi.o)
 .bss.cmdcnt    0x000000000046a04c        0x4 editors/lib.a(vi.o)
 .bss.rows      0x000000000046a050        0x4 editors/lib.a(vi.o)
 .bss.columns   0x000000000046a054        0x4 editors/lib.a(vi.o)
 .bss.crow      0x000000000046a058        0x4 editors/lib.a(vi.o)
 .bss.ccol      0x000000000046a05c        0x4 editors/lib.a(vi.o)
 .bss.offset    0x000000000046a060        0x4 editors/lib.a(vi.o)
 .bss.status_buffer
                0x000000000046a064        0x4 editors/lib.a(vi.o)
 .bss.have_status_msg
                0x000000000046a068        0x4 editors/lib.a(vi.o)
 .bss.last_status_cksum
                0x000000000046a06c        0x4 editors/lib.a(vi.o)
 .bss.current_filename
                0x000000000046a070        0x4 editors/lib.a(vi.o)
 .bss.screen    0x000000000046a074        0x4 editors/lib.a(vi.o)
 .bss.screensize
                0x000000000046a078        0x4 editors/lib.a(vi.o)
 .bss.screenbegin
                0x000000000046a07c        0x4 editors/lib.a(vi.o)
 .bss.tabstop   0x000000000046a080        0x4 editors/lib.a(vi.o)
 .bss.erase_char
                0x000000000046a084        0x1 editors/lib.a(vi.o)
 .bss.last_input_char
                0x000000000046a085        0x1 editors/lib.a(vi.o)
 .bss.last_forward_char
                0x000000000046a086        0x1 editors/lib.a(vi.o)
 *fill*         0x000000000046a087        0x1 00
 .bss.readed_for_parse
                0x000000000046a088        0x4 editors/lib.a(vi.o)
 .bss.actions   0x000000000046a08c        0x4 findutils/lib.a(find.o)
 .bss.max_matches
                0x000000000046a090        0x4 findutils/lib.a(grep.o)
 .bss.reflags   0x000000000046a094        0x4 findutils/lib.a(grep.o)
 .bss.invert_search
                0x000000000046a098        0x1 findutils/lib.a(grep.o)
 .bss.print_filename
                0x000000000046a099        0x1 findutils/lib.a(grep.o)
 .bss.open_errors
                0x000000000046a09a        0x1 findutils/lib.a(grep.o)
 *fill*         0x000000000046a09b        0x1 00
 .bss.pattern_head
                0x000000000046a09c        0x4 findutils/lib.a(grep.o)
 .bss.cur_file  0x000000000046a0a0        0x4 findutils/lib.a(grep.o)
 .bss.init_action_list
                0x000000000046a0a4        0x4 init/lib.a(init.o)
 .bss.got_cont  0x000000000046a0a8        0x4 init/lib.a(init.o)
 .bss.ino_dev_hashtable
                0x000000000046a0ac        0x4 libbb/lib.a(inode_hash.o)
 .bss.buf.6365  0x000000000046a0b0        0xc libbb/lib.a(mode_string.o)
 .bss.local_buf
                0x000000000046a0bc        0xc libbb/lib.a(xfuncs.o)
 .bss.ps.6399   0x000000000046a0c8        0x4 miscutils/lib.a(time.o)
 .bss.depend    0x000000000046a0cc        0x4 modutils/lib.a(modprobe.o)
 .bss.main_opts
                0x000000000046a0d0        0x4 modutils/lib.a(modprobe.o)
 .bss.ap        0x000000000046a0d4        0x4 networking/lib.a(arp.o)
 .bss.hw        0x000000000046a0d8        0x4 networking/lib.a(arp.o)
 .bss.sockfd    0x000000000046a0dc        0x4 networking/lib.a(arp.o)
 .bss.hw_set    0x000000000046a0e0        0x1 networking/lib.a(arp.o)
 .bss.verbose_flag
                0x000000000046a0e1        0x1 networking/lib.a(ftpgetput.o)
 .bss.do_continue
                0x000000000046a0e2        0x1 networking/lib.a(ftpgetput.o)
 *fill*         0x000000000046a0e3        0x1 00
 .bss.label_buf.6466
                0x000000000046a0e4       0x14 networking/lib.a(ifupdown.o)
 .bss.my_environ
                0x000000000046a0f8        0x4 networking/lib.a(ifupdown.o)
 .bss.startup_PATH
                0x000000000046a0fc        0x4 networking/lib.a(ifupdown.o)
 .bss.proc_read.6713
                0x000000000046a100        0x1 networking/lib.a(interface.o)
 *fill*         0x000000000046a101        0x3 00
 .bss.buff.6512
                0x000000000046a104        0x4 networking/lib.a(interface.o)
 .bss.buff.6475
                0x000000000046a108        0x4 networking/lib.a(interface.o)
 .bss.buff.6494
                0x000000000046a10c        0x4 networking/lib.a(interface.o)
 .bss.buff.6848
                0x000000000046a110        0x4 networking/lib.a(interface.o)
 .bss.int_list  0x000000000046a114        0x4 networking/lib.a(interface.o)
 .bss.int_last  0x000000000046a118        0x4 networking/lib.a(interface.o)
 .bss.has_inode.6620
                0x000000000046a11c        0x1 networking/lib.a(netstat.o)
 *fill*         0x000000000046a11d        0x3 00
 .bss.gDest_arp
                0x000000000046a120        0x4 networking/lib.a(tftp.o)
                0x000000000046a120                gDest_arp
 .bss.gifindex  0x000000000046a124        0x4 networking/lib.a(tftp.o)
 .bss.gPort     0x000000000046a128        0x4 networking/lib.a(tftp.o)
 .bss.dest.6609
                0x000000000046a12c       0x14 networking/lib.a(tftp.o)
 .bss.gDst_mac  0x000000000046a140        0x8 networking/lib.a(tftp.o)
 .bss.preferred_family
                0x000000000046a148        0x4 networking/libiproute/lib.a(ip_parse_common_args.o)
                0x000000000046a148                preferred_family
 .bss.nbuf.7092
                0x000000000046a14c       0x10 networking/libiproute/lib.a(ll_map.o)
 .bss.idxmap    0x000000000046a15c       0x40 networking/libiproute/lib.a(ll_map.o)
 .bss.res.6518  0x000000000046a19c        0x4 networking/libiproute/lib.a(rt_names.o)
 .bss.cache.6517
                0x000000000046a1a0        0x4 networking/libiproute/lib.a(rt_names.o)
 .bss.rtnl_rtscope_tab
                0x000000000046a1a4        0x4 networking/libiproute/lib.a(rt_names.o)
 .bss.did_banner.10222
                0x000000000046a1a8        0x1 shell/lib.a(ash.o)
 *fill*         0x000000000046a1a9        0x3 00
 .bss.is_interactive.10221
                0x000000000046a1ac        0x4 shell/lib.a(ash.o)
 .bss.buf.9626  0x000000000046a1b0       0x10 shell/lib.a(ash.o)
 .bss.optlist   0x000000000046a1c0        0xe shell/lib.a(ash.o)
 .bss.nullstr   0x000000000046a1ce        0x1 shell/lib.a(ash.o)
 *fill*         0x000000000046a1cf        0x1 00
 .bss.minusc    0x000000000046a1d0        0x4 shell/lib.a(ash.o)
 .bss.rootpid   0x000000000046a1d4        0x4 shell/lib.a(ash.o)
 .bss.shlvl     0x000000000046a1d8        0x4 shell/lib.a(ash.o)
 .bss.trap      0x000000000046a1dc      0x204 shell/lib.a(ash.o)
 .bss.isloginsh
                0x000000000046a3e0        0x1 shell/lib.a(ash.o)
 *fill*         0x000000000046a3e1        0x3 00
 .bss.sigmode   0x000000000046a3e4       0x80 shell/lib.a(ash.o)
 .bss.gotsig    0x000000000046a464       0x80 shell/lib.a(ash.o)
 .bss.arg0      0x000000000046a4e4        0x4 shell/lib.a(ash.o)
 .bss.exception_handler
                0x000000000046a4e8        0x4 shell/lib.a(ash.o)
 .bss.exception
                0x000000000046a4ec        0x4 shell/lib.a(ash.o)
 .bss.suppressint
                0x000000000046a4f0        0x4 shell/lib.a(ash.o)
 .bss.intpending
                0x000000000046a4f4        0x4 shell/lib.a(ash.o)
 .bss.exsig     0x000000000046a4f8        0x4 shell/lib.a(ash.o)
 .bss.pendingsig
                0x000000000046a4fc        0x4 shell/lib.a(ash.o)
 .bss.basepf    0x000000000046a500       0x30 shell/lib.a(ash.o)
 .bss.startlinno
                0x000000000046a530        0x4 shell/lib.a(ash.o)
 .bss.commandname
                0x000000000046a534        0x4 shell/lib.a(ash.o)
 .bss.cmdenviron
                0x000000000046a538        0x4 shell/lib.a(ash.o)
 .bss.exitstatus
                0x000000000046a53c        0x4 shell/lib.a(ash.o)
 .bss.stackbase
                0x000000000046a540      0x1fc shell/lib.a(ash.o)
 .bss.markp     0x000000000046a73c        0x4 shell/lib.a(ash.o)
 .bss.argptr    0x000000000046a740        0x4 shell/lib.a(ash.o)
 .bss.optionarg
                0x000000000046a744        0x4 shell/lib.a(ash.o)
 .bss.optptr    0x000000000046a748        0x4 shell/lib.a(ash.o)
 .bss.shellparam
                0x000000000046a74c       0x14 shell/lib.a(ash.o)
 .bss.redirlist
                0x000000000046a760        0x4 shell/lib.a(ash.o)
 .bss.nullredirs
                0x000000000046a764        0x4 shell/lib.a(ash.o)
 .bss.preverrout_fd
                0x000000000046a768        0x4 shell/lib.a(ash.o)
 .bss.vartab    0x000000000046a76c       0x9c shell/lib.a(ash.o)
 .bss.pathopt   0x000000000046a808        0x4 shell/lib.a(ash.o)
 .bss.doprompt  0x000000000046a80c        0x4 shell/lib.a(ash.o)
 .bss.needprompt
                0x000000000046a810        0x4 shell/lib.a(ash.o)
 .bss.line_input_state
                0x000000000046a814        0x4 shell/lib.a(ash.o)
 .bss.cmdedit_prompt
                0x000000000046a818        0x4 shell/lib.a(ash.o)
 .bss.backgndpid
                0x000000000046a81c        0x4 shell/lib.a(ash.o)
 .bss.job_warning
                0x000000000046a820        0x1 shell/lib.a(ash.o)
 .bss.jobctl    0x000000000046a821        0x1 shell/lib.a(ash.o)
 *fill*         0x000000000046a822        0x2 00
 .bss.initialpgrp
                0x000000000046a824        0x4 shell/lib.a(ash.o)
 .bss.jobtab    0x000000000046a828        0x4 shell/lib.a(ash.o)
 .bss.njobs     0x000000000046a82c        0x4 shell/lib.a(ash.o)
 .bss.curjob    0x000000000046a830        0x4 shell/lib.a(ash.o)
 .bss.jobless   0x000000000046a834        0x4 shell/lib.a(ash.o)
 .bss.cmdnextc  0x000000000046a838        0x4 shell/lib.a(ash.o)
 .bss.expdest   0x000000000046a83c        0x4 shell/lib.a(ash.o)
 .bss.argbackq  0x000000000046a840        0x4 shell/lib.a(ash.o)
 .bss.ifsfirst  0x000000000046a844       0x10 shell/lib.a(ash.o)
 .bss.ifslastp  0x000000000046a854        0x4 shell/lib.a(ash.o)
 .bss.exparg    0x000000000046a858        0x8 shell/lib.a(ash.o)
 .bss.back_exitstatus
                0x000000000046a860        0x4 shell/lib.a(ash.o)
 .bss.expdir    0x000000000046a864        0x4 shell/lib.a(ash.o)
 .bss.cmdtable  0x000000000046a868       0x7c shell/lib.a(ash.o)
 .bss.lastcmdentry
                0x000000000046a8e4        0x4 shell/lib.a(ash.o)
 .bss.funcblocksize
                0x000000000046a8e8        0x4 shell/lib.a(ash.o)
 .bss.funcstringsize
                0x000000000046a8ec        0x4 shell/lib.a(ash.o)
 .bss.funcblock
                0x000000000046a8f0        0x4 shell/lib.a(ash.o)
 .bss.funcstring
                0x000000000046a8f4        0x4 shell/lib.a(ash.o)
 .bss.evalskip  0x000000000046a8f8        0x4 shell/lib.a(ash.o)
 .bss.skipcount
                0x000000000046a8fc        0x4 shell/lib.a(ash.o)
 .bss.funcnest  0x000000000046a900        0x4 shell/lib.a(ash.o)
 .bss.loopnest  0x000000000046a904        0x4 shell/lib.a(ash.o)
 .bss.localvars
                0x000000000046a908        0x4 shell/lib.a(ash.o)
 .bss.parsenleft
                0x000000000046a90c        0x4 shell/lib.a(ash.o)
 .bss.parselleft
                0x000000000046a910        0x4 shell/lib.a(ash.o)
 .bss.parsenextc
                0x000000000046a914        0x4 shell/lib.a(ash.o)
 .bss.checkkwd  0x000000000046a918        0x4 shell/lib.a(ash.o)
 .bss.tokpushback
                0x000000000046a91c        0x4 shell/lib.a(ash.o)
 .bss.parsebackquote
                0x000000000046a920        0x4 shell/lib.a(ash.o)
 .bss.lasttoken
                0x000000000046a924        0x4 shell/lib.a(ash.o)
 .bss.wordtext  0x000000000046a928        0x4 shell/lib.a(ash.o)
 .bss.backquotelist
                0x000000000046a92c        0x4 shell/lib.a(ash.o)
 .bss.redirnode
                0x000000000046a930        0x4 shell/lib.a(ash.o)
 .bss.heredoc   0x000000000046a934        0x4 shell/lib.a(ash.o)
 .bss.quoteflag
                0x000000000046a938        0x4 shell/lib.a(ash.o)
 .bss.heredoclist
                0x000000000046a93c        0x4 shell/lib.a(ash.o)
 .bss.prev_chk_var_recursive
                0x000000000046a940        0x4 shell/lib.a(ash.o)
 .bss.doRemoteLogMask
                0x000000000046a944        0x4 sysklogd/lib.a(syslogd.o)
 .bss.logdata   0x000000000046a948      0x20c sysklogd/lib.a(syslogd.o)
 .bss.format    0x000000000046ab54        0x1 util-linux/lib.a(ipcs.o)
 *fill*         0x000000000046ab55        0x3 00
 .bss.fslist    0x000000000046ab58        0x4 util-linux/lib.a(mount.o)
                0x000000000046ab58                fslist
 .bss.nextfs.6822
                0x000000000046ab5c        0x4 libbb/lib.a(dump.o)
 .bss.done.6591
                0x000000000046ab60        0x1 libbb/lib.a(dump.o)
 *fill*         0x000000000046ab61        0x3 00
 .bss.savp.6609
                0x000000000046ab64        0x4 libbb/lib.a(dump.o)
 .bss.curp.6608
                0x000000000046ab68        0x4 libbb/lib.a(dump.o)
 .bss.endfu     0x000000000046ab6c        0x4 libbb/lib.a(dump.o)
 .bss._argv     0x000000000046ab70        0x4 libbb/lib.a(dump.o)
 .bss.savaddress
                0x000000000046ab74        0x4 libbb/lib.a(dump.o)
 .bss.eaddress  0x000000000046ab78        0x4 libbb/lib.a(dump.o)
 .bss.address   0x000000000046ab7c        0x4 libbb/lib.a(dump.o)
 .bss.exitval   0x000000000046ab80        0x4 libbb/lib.a(dump.o)
 .bss.cache.6398
                0x000000000046ab84        0x4 libbb/lib.a(inet_common.o)
 .bss.state     0x000000000046ab88        0x4 libbb/lib.a(lineedit.o)
 .bss.initial_settings
                0x000000000046ab8c       0x34 libbb/lib.a(lineedit.o)
 .bss.new_settings
                0x000000000046abc0       0x34 libbb/lib.a(lineedit.o)
 .bss.cmdedit_x
                0x000000000046abf4        0x4 libbb/lib.a(lineedit.o)
 .bss.cmdedit_y
                0x000000000046abf8        0x4 libbb/lib.a(lineedit.o)
 .bss.cmdedit_prmt_len
                0x000000000046abfc        0x4 libbb/lib.a(lineedit.o)
 .bss.cursor    0x000000000046ac00        0x4 libbb/lib.a(lineedit.o)
 .bss.command_len
                0x000000000046ac04        0x4 libbb/lib.a(lineedit.o)
 .bss.command_ps
                0x000000000046ac08        0x4 libbb/lib.a(lineedit.o)
 .bss.cmdedit_prompt
                0x000000000046ac0c        0x4 libbb/lib.a(lineedit.o)
 .bss.matches   0x000000000046ac10        0x4 libbb/lib.a(lineedit.o)
 .bss.num_matches
                0x000000000046ac14        0x4 libbb/lib.a(lineedit.o)
 .bss.previous_SIGWINCH_handler
                0x000000000046ac18        0x4 libbb/lib.a(lineedit.o)
 .bss.username  0x000000000046ac1c        0x8 libbb/lib.a(procps.o)
 .bss.groupname
                0x000000000046ac24        0x8 libbb/lib.a(procps.o)
 *(COMMON)
 COMMON         0x000000000046ac2c     0x1001 libbb/lib.a(messages.o)
                0x000000000046ac2c                bb_common_bufsiz1
                0x000000000046bc30                . = ALIGN ((. != 0x0)?0x4:0x1)
 *fill*         0x000000000046bc2d        0x3 00
                0x000000000046bc30                . = ALIGN (0x4)
                0x000000000046bc30                . = ALIGN (0x4)
                0x000000000046bc30                _end = .
                0x000000000046bc30                PROVIDE (end, .)
                0x000000000046bc30                . = DATA_SEGMENT_END (.)

.stab
 *(.stab)

.stabstr
 *(.stabstr)

.stab.excl
 *(.stab.excl)

.stab.exclstr
 *(.stab.exclstr)

.stab.index
 *(.stab.index)

.stab.indexstr
 *(.stab.indexstr)

.pdr            0x0000000000000000        0x0
 .pdr           0x0000000000000000        0x0 /opt/toolchains/buildroot-be-gcc434-2013-0107/usr/bin/../lib/gcc/mips-unknown-linux-uclibc/4.3.4/crtbegin.o
 .pdr           0x0000000000000000        0x0 libbb/lib.a(default_error_retval.o)
 .pdr           0x0000000000000000        0x0 libbb/lib.a(messages.o)
 .pdr           0x0000000000000000        0x0 libbb/lib.a(mtab_file.o)
 .pdr           0x0000000000000000        0x0 /opt/toolchains/buildroot-be-gcc434-2013-0107/usr/bin/../lib/gcc/mips-unknown-linux-uclibc/4.3.4/libgcc.a(_clz.o)
 .pdr           0x0000000000000000        0x0 /opt/toolchains/buildroot-be-gcc434-2013-0107/usr/bin/../lib/gcc/mips-unknown-linux-uclibc/4.3.4/crtend.o

.comment        0x0000000000000000       0x30
 *(.comment)
 .comment       0x0000000000000000       0x11 /opt/buildroot-be-gcc434/usr/lib/crti.o
                                         0x12 (size before relaxing)
 .comment       0x0000000000000011       0x1f /opt/toolchains/buildroot-be-gcc434-2013-0107/usr/bin/../lib/gcc/mips-unknown-linux-uclibc/4.3.4/crtbegin.o
                                         0x20 (size before relaxing)
 .comment       0x0000000000000000       0x20 applets/built-in.o
 .comment       0x0000000000000000       0x20 coreutils/lib.a(basename.o)
 .comment       0x0000000000000000       0x20 coreutils/lib.a(cat.o)
 .comment       0x0000000000000000       0x20 coreutils/lib.a(chmod.o)
 .comment       0x0000000000000000       0x20 coreutils/lib.a(cp.o)
 .comment       0x0000000000000000       0x20 coreutils/lib.a(date.o)
 .comment       0x0000000000000000       0x20 coreutils/lib.a(df.o)
 .comment       0x0000000000000000       0x20 coreutils/lib.a(echo.o)
 .comment       0x0000000000000000       0x20 coreutils/lib.a(expr.o)
 .comment       0x0000000000000000       0x20 coreutils/lib.a(id.o)
 .comment       0x0000000000000000       0x20 coreutils/lib.a(ln.o)
 .comment       0x0000000000000000       0x20 coreutils/lib.a(ls.o)
 .comment       0x0000000000000000       0x20 coreutils/lib.a(md5_sha1_sum.o)
 .comment       0x0000000000000000       0x20 coreutils/lib.a(mkdir.o)
 .comment       0x0000000000000000       0x20 coreutils/lib.a(mknod.o)
 .comment       0x0000000000000000       0x20 coreutils/lib.a(mv.o)
 .comment       0x0000000000000000       0x20 coreutils/lib.a(nice.o)
 .comment       0x0000000000000000       0x20 coreutils/lib.a(printf.o)
 .comment       0x0000000000000000       0x20 coreutils/lib.a(pwd.o)
 .comment       0x0000000000000000       0x20 coreutils/lib.a(rm.o)
 .comment       0x0000000000000000       0x20 coreutils/lib.a(sleep.o)
 .comment       0x0000000000000000       0x20 coreutils/lib.a(sort.o)
 .comment       0x0000000000000000       0x20 coreutils/lib.a(stty.o)
 .comment       0x0000000000000000       0x20 coreutils/lib.a(sync.o)
 .comment       0x0000000000000000       0x20 coreutils/lib.a(tail.o)
 .comment       0x0000000000000000       0x20 coreutils/lib.a(test.o)
 .comment       0x0000000000000000       0x20 coreutils/lib.a(touch.o)
 .comment       0x0000000000000000       0x20 coreutils/lib.a(true.o)
 .comment       0x0000000000000000       0x20 coreutils/lib.a(tty.o)
 .comment       0x0000000000000000       0x20 coreutils/lib.a(uname.o)
 .comment       0x0000000000000000       0x20 coreutils/lib.a(wc.o)
 .comment       0x0000000000000000       0x20 coreutils/libcoreutils/lib.a(cp_mv_stat.o)
 .comment       0x0000000000000000       0x20 coreutils/libcoreutils/lib.a(getopt_mk_fifo_nod.o)
 .comment       0x0000000000000000       0x20 debianutils/lib.a(which.o)
 .comment       0x0000000000000000       0x20 editors/lib.a(cmp.o)
 .comment       0x0000000000000000       0x20 editors/lib.a(vi.o)
 .comment       0x0000000000000000       0x20 findutils/lib.a(find.o)
 .comment       0x0000000000000000       0x20 findutils/lib.a(grep.o)
 .comment       0x0000000000000000       0x20 init/lib.a(halt.o)
 .comment       0x0000000000000000       0x20 init/lib.a(init.o)
 .comment       0x0000000000000000       0x20 libbb/lib.a(ask_confirmation.o)
 .comment       0x0000000000000000       0x20 libbb/lib.a(bb_basename.o)
 .comment       0x0000000000000000       0x20 libbb/lib.a(bb_pwd.o)
 .comment       0x0000000000000000       0x20 libbb/lib.a(bb_strtonum.o)
 .comment       0x0000000000000000       0x20 libbb/lib.a(compare_string_array.o)
 .comment       0x0000000000000000       0x20 libbb/lib.a(concat_path_file.o)
 .comment       0x0000000000000000       0x20 libbb/lib.a(copy_file.o)
 .comment       0x0000000000000000       0x20 libbb/lib.a(copyfd.o)
 .comment       0x0000000000000000       0x20 libbb/lib.a(default_error_retval.o)
 .comment       0x0000000000000000       0x20 libbb/lib.a(device_open.o)
 .comment       0x0000000000000000       0x20 libbb/lib.a(error_msg.o)
 .comment       0x0000000000000000       0x20 libbb/lib.a(error_msg_and_die.o)
 .comment       0x0000000000000000       0x20 libbb/lib.a(execable.o)
 .comment       0x0000000000000000       0x20 libbb/lib.a(fclose_nonstdin.o)
 .comment       0x0000000000000000       0x20 libbb/lib.a(fflush_stdout_and_exit.o)
 .comment       0x0000000000000000       0x20 libbb/lib.a(find_mount_point.o)
 .comment       0x0000000000000000       0x20 libbb/lib.a(find_root_device.o)
 .comment       0x0000000000000000       0x20 libbb/lib.a(full_write.o)
 .comment       0x0000000000000000       0x20 libbb/lib.a(get_last_path_component.o)
 .comment       0x0000000000000000       0x20 libbb/lib.a(get_line_from_file.o)
 .comment       0x0000000000000000       0x20 libbb/lib.a(getopt32.o)
 .comment       0x0000000000000000       0x20 libbb/lib.a(inode_hash.o)
 .comment       0x0000000000000000       0x20 libbb/lib.a(isdirectory.o)
 .comment       0x0000000000000000       0x20 libbb/lib.a(last_char_is.o)
 .comment       0x0000000000000000       0x20 libbb/lib.a(llist.o)
 .comment       0x0000000000000000       0x20 libbb/lib.a(make_directory.o)
 .comment       0x0000000000000000       0x20 libbb/lib.a(makedev.o)
 .comment       0x0000000000000000       0x20 libbb/lib.a(md5.o)
 .comment       0x0000000000000000       0x20 libbb/lib.a(messages.o)
 .comment       0x0000000000000000       0x20 libbb/lib.a(mode_string.o)
 .comment       0x0000000000000000       0x20 libbb/lib.a(mtab_file.o)
 .comment       0x0000000000000000       0x20 libbb/lib.a(parse_mode.o)
 .comment       0x0000000000000000       0x20 libbb/lib.a(perror_msg.o)
 .comment       0x0000000000000000       0x20 libbb/lib.a(perror_msg_and_die.o)
 .comment       0x0000000000000000       0x20 libbb/lib.a(perror_nomsg_and_die.o)
 .comment       0x0000000000000000       0x20 libbb/lib.a(process_escape_sequence.o)
 .comment       0x0000000000000000       0x20 libbb/lib.a(read.o)
 .comment       0x0000000000000000       0x20 libbb/lib.a(recursive_action.o)
 .comment       0x0000000000000000       0x20 libbb/lib.a(remove_file.o)
 .comment       0x0000000000000000       0x20 libbb/lib.a(safe_strncpy.o)
 .comment       0x0000000000000000       0x20 libbb/lib.a(safe_write.o)
 .comment       0x0000000000000000       0x20 libbb/lib.a(skip_whitespace.o)
 .comment       0x0000000000000000       0x20 libbb/lib.a(speed_table.o)
 .comment       0x0000000000000000       0x20 libbb/lib.a(verror_msg.o)
 .comment       0x0000000000000000       0x20 libbb/lib.a(vfork_daemon_rexec.o)
 .comment       0x0000000000000000       0x20 libbb/lib.a(warn_ignoring_args.o)
 .comment       0x0000000000000000       0x20 libbb/lib.a(wfopen_input.o)
 .comment       0x0000000000000000       0x20 libbb/lib.a(xatonum.o)
 .comment       0x0000000000000000       0x20 libbb/lib.a(xfuncs.o)
 .comment       0x0000000000000000       0x20 libbb/lib.a(xgetcwd.o)
 .comment       0x0000000000000000       0x20 libbb/lib.a(xreadlink.o)
 .comment       0x0000000000000000       0x20 libbb/lib.a(xregcomp.o)
 .comment       0x0000000000000000       0x20 libbb/lib.a(concat_subpath_file.o)
 .comment       0x0000000000000000       0x20 libbb/lib.a(wfopen.o)
 .comment       0x0000000000000000       0x20 miscutils/lib.a(time.o)
 .comment       0x0000000000000000       0x20 miscutils/lib.a(watchdog.o)
 .comment       0x0000000000000000       0x20 modutils/lib.a(insmod.o)
 .comment       0x0000000000000000       0x20 modutils/lib.a(lsmod.o)
 .comment       0x0000000000000000       0x20 modutils/lib.a(modprobe.o)
 .comment       0x0000000000000000       0x20 modutils/lib.a(rmmod.o)
 .comment       0x0000000000000000       0x20 networking/lib.a(arp.o)
 .comment       0x0000000000000000       0x20 networking/lib.a(ftpgetput.o)
 .comment       0x0000000000000000       0x20 networking/lib.a(ifconfig.o)
 .comment       0x0000000000000000       0x20 networking/lib.a(ifupdown.o)
 .comment       0x0000000000000000       0x20 networking/lib.a(interface.o)
 .comment       0x0000000000000000       0x20 networking/lib.a(ip.o)
 .comment       0x0000000000000000       0x20 networking/lib.a(netstat.o)
 .comment       0x0000000000000000       0x20 networking/lib.a(ping.o)
 .comment       0x0000000000000000       0x20 networking/lib.a(route.o)
 .comment       0x0000000000000000       0x20 networking/lib.a(tftp.o)
 .comment       0x0000000000000000       0x20 networking/lib.a(vconfig.o)
 .comment       0x0000000000000000       0x20 networking/libiproute/lib.a(ip_parse_common_args.o)
 .comment       0x0000000000000000       0x20 networking/libiproute/lib.a(iplink.o)
 .comment       0x0000000000000000       0x20 networking/libiproute/lib.a(ll_addr.o)
 .comment       0x0000000000000000       0x20 networking/libiproute/lib.a(utils.o)
 .comment       0x0000000000000000       0x20 networking/libiproute/lib.a(ipaddress.o)
 .comment       0x0000000000000000       0x20 networking/libiproute/lib.a(libnetlink.o)
 .comment       0x0000000000000000       0x20 networking/libiproute/lib.a(ll_map.o)
 .comment       0x0000000000000000       0x20 networking/libiproute/lib.a(ll_types.o)
 .comment       0x0000000000000000       0x20 networking/libiproute/lib.a(rt_names.o)
 .comment       0x0000000000000000       0x20 procps/lib.a(kill.o)
 .comment       0x0000000000000000       0x20 procps/lib.a(pidof.o)
 .comment       0x0000000000000000       0x20 procps/lib.a(ps.o)
 .comment       0x0000000000000000       0x20 procps/lib.a(sysctl.o)
 .comment       0x0000000000000000       0x20 procps/lib.a(top.o)
 .comment       0x0000000000000000       0x20 procps/lib.a(uptime.o)
 .comment       0x0000000000000000       0x20 shell/lib.a(ash.o)
 .comment       0x0000000000000000       0x20 sysklogd/lib.a(logger.o)
 .comment       0x0000000000000000       0x20 sysklogd/lib.a(syslogd.o)
 .comment       0x0000000000000000       0x20 util-linux/lib.a(dmesg.o)
 .comment       0x0000000000000000       0x20 util-linux/lib.a(hexdump.o)
 .comment       0x0000000000000000       0x20 util-linux/lib.a(ipcs.o)
 .comment       0x0000000000000000       0x20 util-linux/lib.a(mount.o)
 .comment       0x0000000000000000       0x20 util-linux/lib.a(umount.o)
 .comment       0x0000000000000000       0x20 libbb/lib.a(create_icmp6_socket.o)
 .comment       0x0000000000000000       0x20 libbb/lib.a(create_icmp_socket.o)
 .comment       0x0000000000000000       0x20 libbb/lib.a(dump.o)
 .comment       0x0000000000000000       0x20 libbb/lib.a(find_pid_by_name.o)
 .comment       0x0000000000000000       0x20 libbb/lib.a(herror_msg_and_die.o)
 .comment       0x0000000000000000       0x20 libbb/lib.a(inet_common.o)
 .comment       0x0000000000000000       0x20 libbb/lib.a(lineedit.o)
 .comment       0x0000000000000000       0x20 libbb/lib.a(loop.o)
 .comment       0x0000000000000000       0x20 libbb/lib.a(match_fstype.o)
 .comment       0x0000000000000000       0x20 libbb/lib.a(procps.o)
 .comment       0x0000000000000000       0x20 libbb/lib.a(simplify_path.o)
 .comment       0x0000000000000000       0x20 libbb/lib.a(time.o)
 .comment       0x0000000000000000       0x20 libbb/lib.a(trim.o)
 .comment       0x0000000000000000       0x20 libbb/lib.a(u_signal_names.o)
 .comment       0x0000000000000000       0x20 libbb/lib.a(xconnect.o)
 .comment       0x0000000000000000       0x20 /opt/toolchains/buildroot-be-gcc434-2013-0107/usr/bin/../lib/gcc/mips-unknown-linux-uclibc/4.3.4/libgcc.a(_lshrdi3.o)
 .comment       0x0000000000000000       0x20 /opt/toolchains/buildroot-be-gcc434-2013-0107/usr/bin/../lib/gcc/mips-unknown-linux-uclibc/4.3.4/libgcc.a(_udivdi3.o)
 .comment       0x0000000000000000       0x20 /opt/toolchains/buildroot-be-gcc434-2013-0107/usr/bin/../lib/gcc/mips-unknown-linux-uclibc/4.3.4/libgcc.a(_sf_to_df.o)
 .comment       0x0000000000000000       0x20 /opt/toolchains/buildroot-be-gcc434-2013-0107/usr/bin/../lib/gcc/mips-unknown-linux-uclibc/4.3.4/libgcc.a(_make_df.o)
 .comment       0x0000000000000000       0x20 /opt/toolchains/buildroot-be-gcc434-2013-0107/usr/bin/../lib/gcc/mips-unknown-linux-uclibc/4.3.4/libgcc.a(_clz.o)
 .comment       0x0000000000000000       0x20 /opt/toolchains/buildroot-be-gcc434-2013-0107/usr/bin/../lib/gcc/mips-unknown-linux-uclibc/4.3.4/libgcc.a(_unpack_sf.o)
 .comment       0x0000000000000000       0x20 /opt/toolchains/buildroot-be-gcc434-2013-0107/usr/bin/../lib/gcc/mips-unknown-linux-uclibc/4.3.4/libgcc.a(_pack_df.o)
 .comment       0x0000000000000000       0x20 /opt/toolchains/buildroot-be-gcc434-2013-0107/usr/bin/../lib/gcc/mips-unknown-linux-uclibc/4.3.4/libgcc.a(_ashldi3.o)
 .comment       0x0000000000000000       0x20 /opt/toolchains/buildroot-be-gcc434-2013-0107/usr/bin/../lib/gcc/mips-unknown-linux-uclibc/4.3.4/libgcc.a(_ucmpdi2.o)
 .comment       0x0000000000000000       0x20 /opt/toolchains/buildroot-be-gcc434-2013-0107/usr/bin/../lib/gcc/mips-unknown-linux-uclibc/4.3.4/crtend.o
 .comment       0x0000000000000000       0x12 /opt/buildroot-be-gcc434/usr/lib/crtn.o

.debug
 *(.debug)

.line
 *(.line)

.debug_srcinfo
 *(.debug_srcinfo)

.debug_sfnames
 *(.debug_sfnames)

.debug_aranges  0x0000000000000000      0x100
 *(.debug_aranges)
 .debug_aranges
                0x0000000000000000       0x20 /opt/toolchains/buildroot-be-gcc434-2013-0107/usr/bin/../lib/gcc/mips-unknown-linux-uclibc/4.3.4/libgcc.a(_lshrdi3.o)
 .debug_aranges
                0x0000000000000020       0x20 /opt/toolchains/buildroot-be-gcc434-2013-0107/usr/bin/../lib/gcc/mips-unknown-linux-uclibc/4.3.4/libgcc.a(_udivdi3.o)
 .debug_aranges
                0x0000000000000040       0x20 /opt/toolchains/buildroot-be-gcc434-2013-0107/usr/bin/../lib/gcc/mips-unknown-linux-uclibc/4.3.4/libgcc.a(_sf_to_df.o)
 .debug_aranges
                0x0000000000000060       0x20 /opt/toolchains/buildroot-be-gcc434-2013-0107/usr/bin/../lib/gcc/mips-unknown-linux-uclibc/4.3.4/libgcc.a(_make_df.o)
 .debug_aranges
                0x0000000000000080       0x20 /opt/toolchains/buildroot-be-gcc434-2013-0107/usr/bin/../lib/gcc/mips-unknown-linux-uclibc/4.3.4/libgcc.a(_unpack_sf.o)
 .debug_aranges
                0x00000000000000a0       0x20 /opt/toolchains/buildroot-be-gcc434-2013-0107/usr/bin/../lib/gcc/mips-unknown-linux-uclibc/4.3.4/libgcc.a(_pack_df.o)
 .debug_aranges
                0x00000000000000c0       0x20 /opt/toolchains/buildroot-be-gcc434-2013-0107/usr/bin/../lib/gcc/mips-unknown-linux-uclibc/4.3.4/libgcc.a(_ashldi3.o)
 .debug_aranges
                0x00000000000000e0       0x20 /opt/toolchains/buildroot-be-gcc434-2013-0107/usr/bin/../lib/gcc/mips-unknown-linux-uclibc/4.3.4/libgcc.a(_ucmpdi2.o)

.debug_pubnames
                0x0000000000000000      0x124
 *(.debug_pubnames)
 .debug_pubnames
                0x0000000000000000       0x20 /opt/toolchains/buildroot-be-gcc434-2013-0107/usr/bin/../lib/gcc/mips-unknown-linux-uclibc/4.3.4/libgcc.a(_lshrdi3.o)
 .debug_pubnames
                0x0000000000000020       0x20 /opt/toolchains/buildroot-be-gcc434-2013-0107/usr/bin/../lib/gcc/mips-unknown-linux-uclibc/4.3.4/libgcc.a(_udivdi3.o)
 .debug_pubnames
                0x0000000000000040       0x24 /opt/toolchains/buildroot-be-gcc434-2013-0107/usr/bin/../lib/gcc/mips-unknown-linux-uclibc/4.3.4/libgcc.a(_sf_to_df.o)
 .debug_pubnames
                0x0000000000000064       0x20 /opt/toolchains/buildroot-be-gcc434-2013-0107/usr/bin/../lib/gcc/mips-unknown-linux-uclibc/4.3.4/libgcc.a(_make_df.o)
 .debug_pubnames
                0x0000000000000084       0x20 /opt/toolchains/buildroot-be-gcc434-2013-0107/usr/bin/../lib/gcc/mips-unknown-linux-uclibc/4.3.4/libgcc.a(_clz.o)
 .debug_pubnames
                0x00000000000000a4       0x21 /opt/toolchains/buildroot-be-gcc434-2013-0107/usr/bin/../lib/gcc/mips-unknown-linux-uclibc/4.3.4/libgcc.a(_unpack_sf.o)
 .debug_pubnames
                0x00000000000000c5       0x1f /opt/toolchains/buildroot-be-gcc434-2013-0107/usr/bin/../lib/gcc/mips-unknown-linux-uclibc/4.3.4/libgcc.a(_pack_df.o)
 .debug_pubnames
                0x00000000000000e4       0x20 /opt/toolchains/buildroot-be-gcc434-2013-0107/usr/bin/../lib/gcc/mips-unknown-linux-uclibc/4.3.4/libgcc.a(_ashldi3.o)
 .debug_pubnames
                0x0000000000000104       0x20 /opt/toolchains/buildroot-be-gcc434-2013-0107/usr/bin/../lib/gcc/mips-unknown-linux-uclibc/4.3.4/libgcc.a(_ucmpdi2.o)

.debug_info     0x0000000000000000     0x1478
 *(.debug_info .gnu.linkonce.wi.*)
 .debug_info    0x0000000000000000      0x1a1 /opt/toolchains/buildroot-be-gcc434-2013-0107/usr/bin/../lib/gcc/mips-unknown-linux-uclibc/4.3.4/libgcc.a(_lshrdi3.o)
 .debug_info    0x00000000000001a1      0x67d /opt/toolchains/buildroot-be-gcc434-2013-0107/usr/bin/../lib/gcc/mips-unknown-linux-uclibc/4.3.4/libgcc.a(_udivdi3.o)
 .debug_info    0x000000000000081e      0x1f9 /opt/toolchains/buildroot-be-gcc434-2013-0107/usr/bin/../lib/gcc/mips-unknown-linux-uclibc/4.3.4/libgcc.a(_sf_to_df.o)
 .debug_info    0x0000000000000a17      0x1d6 /opt/toolchains/buildroot-be-gcc434-2013-0107/usr/bin/../lib/gcc/mips-unknown-linux-uclibc/4.3.4/libgcc.a(_make_df.o)
 .debug_info    0x0000000000000bed       0xc5 /opt/toolchains/buildroot-be-gcc434-2013-0107/usr/bin/../lib/gcc/mips-unknown-linux-uclibc/4.3.4/libgcc.a(_clz.o)
 .debug_info    0x0000000000000cb2      0x210 /opt/toolchains/buildroot-be-gcc434-2013-0107/usr/bin/../lib/gcc/mips-unknown-linux-uclibc/4.3.4/libgcc.a(_unpack_sf.o)
 .debug_info    0x0000000000000ec2      0x2b0 /opt/toolchains/buildroot-be-gcc434-2013-0107/usr/bin/../lib/gcc/mips-unknown-linux-uclibc/4.3.4/libgcc.a(_pack_df.o)
 .debug_info    0x0000000000001172      0x1a4 /opt/toolchains/buildroot-be-gcc434-2013-0107/usr/bin/../lib/gcc/mips-unknown-linux-uclibc/4.3.4/libgcc.a(_ashldi3.o)
 .debug_info    0x0000000000001316      0x162 /opt/toolchains/buildroot-be-gcc434-2013-0107/usr/bin/../lib/gcc/mips-unknown-linux-uclibc/4.3.4/libgcc.a(_ucmpdi2.o)

.debug_abbrev   0x0000000000000000      0x99e
 *(.debug_abbrev)
 .debug_abbrev  0x0000000000000000       0xfa /opt/toolchains/buildroot-be-gcc434-2013-0107/usr/bin/../lib/gcc/mips-unknown-linux-uclibc/4.3.4/libgcc.a(_lshrdi3.o)
 .debug_abbrev  0x00000000000000fa      0x182 /opt/toolchains/buildroot-be-gcc434-2013-0107/usr/bin/../lib/gcc/mips-unknown-linux-uclibc/4.3.4/libgcc.a(_udivdi3.o)
 .debug_abbrev  0x000000000000027c      0x10a /opt/toolchains/buildroot-be-gcc434-2013-0107/usr/bin/../lib/gcc/mips-unknown-linux-uclibc/4.3.4/libgcc.a(_sf_to_df.o)
 .debug_abbrev  0x0000000000000386      0x11b /opt/toolchains/buildroot-be-gcc434-2013-0107/usr/bin/../lib/gcc/mips-unknown-linux-uclibc/4.3.4/libgcc.a(_make_df.o)
 .debug_abbrev  0x00000000000004a1       0x6a /opt/toolchains/buildroot-be-gcc434-2013-0107/usr/bin/../lib/gcc/mips-unknown-linux-uclibc/4.3.4/libgcc.a(_clz.o)
 .debug_abbrev  0x000000000000050b      0x13c /opt/toolchains/buildroot-be-gcc434-2013-0107/usr/bin/../lib/gcc/mips-unknown-linux-uclibc/4.3.4/libgcc.a(_unpack_sf.o)
 .debug_abbrev  0x0000000000000647      0x199 /opt/toolchains/buildroot-be-gcc434-2013-0107/usr/bin/../lib/gcc/mips-unknown-linux-uclibc/4.3.4/libgcc.a(_pack_df.o)
 .debug_abbrev  0x00000000000007e0       0xeb /opt/toolchains/buildroot-be-gcc434-2013-0107/usr/bin/../lib/gcc/mips-unknown-linux-uclibc/4.3.4/libgcc.a(_ashldi3.o)
 .debug_abbrev  0x00000000000008cb       0xd3 /opt/toolchains/buildroot-be-gcc434-2013-0107/usr/bin/../lib/gcc/mips-unknown-linux-uclibc/4.3.4/libgcc.a(_ucmpdi2.o)

.debug_line     0x0000000000000000      0x70a
 *(.debug_line)
 .debug_line    0x0000000000000000       0xaf /opt/toolchains/buildroot-be-gcc434-2013-0107/usr/bin/../lib/gcc/mips-unknown-linux-uclibc/4.3.4/libgcc.a(_lshrdi3.o)
 .debug_line    0x00000000000000af      0x10c /opt/toolchains/buildroot-be-gcc434-2013-0107/usr/bin/../lib/gcc/mips-unknown-linux-uclibc/4.3.4/libgcc.a(_udivdi3.o)
 .debug_line    0x00000000000001bb       0xc1 /opt/toolchains/buildroot-be-gcc434-2013-0107/usr/bin/../lib/gcc/mips-unknown-linux-uclibc/4.3.4/libgcc.a(_sf_to_df.o)
 .debug_line    0x000000000000027c       0xc3 /opt/toolchains/buildroot-be-gcc434-2013-0107/usr/bin/../lib/gcc/mips-unknown-linux-uclibc/4.3.4/libgcc.a(_make_df.o)
 .debug_line    0x000000000000033f       0x96 /opt/toolchains/buildroot-be-gcc434-2013-0107/usr/bin/../lib/gcc/mips-unknown-linux-uclibc/4.3.4/libgcc.a(_clz.o)
 .debug_line    0x00000000000003d5       0xe0 /opt/toolchains/buildroot-be-gcc434-2013-0107/usr/bin/../lib/gcc/mips-unknown-linux-uclibc/4.3.4/libgcc.a(_unpack_sf.o)
 .debug_line    0x00000000000004b5       0xfb /opt/toolchains/buildroot-be-gcc434-2013-0107/usr/bin/../lib/gcc/mips-unknown-linux-uclibc/4.3.4/libgcc.a(_pack_df.o)
 .debug_line    0x00000000000005b0       0xaf /opt/toolchains/buildroot-be-gcc434-2013-0107/usr/bin/../lib/gcc/mips-unknown-linux-uclibc/4.3.4/libgcc.a(_ashldi3.o)
 .debug_line    0x000000000000065f       0xab /opt/toolchains/buildroot-be-gcc434-2013-0107/usr/bin/../lib/gcc/mips-unknown-linux-uclibc/4.3.4/libgcc.a(_ucmpdi2.o)

.debug_frame    0x0000000000000000      0x124
 *(.debug_frame)
 .debug_frame   0x0000000000000000       0x20 /opt/toolchains/buildroot-be-gcc434-2013-0107/usr/bin/../lib/gcc/mips-unknown-linux-uclibc/4.3.4/libgcc.a(_lshrdi3.o)
 .debug_frame   0x0000000000000020       0x20 /opt/toolchains/buildroot-be-gcc434-2013-0107/usr/bin/../lib/gcc/mips-unknown-linux-uclibc/4.3.4/libgcc.a(_udivdi3.o)
 .debug_frame   0x0000000000000040       0x28 /opt/toolchains/buildroot-be-gcc434-2013-0107/usr/bin/../lib/gcc/mips-unknown-linux-uclibc/4.3.4/libgcc.a(_sf_to_df.o)
 .debug_frame   0x0000000000000068       0x28 /opt/toolchains/buildroot-be-gcc434-2013-0107/usr/bin/../lib/gcc/mips-unknown-linux-uclibc/4.3.4/libgcc.a(_make_df.o)
 .debug_frame   0x0000000000000090       0x20 /opt/toolchains/buildroot-be-gcc434-2013-0107/usr/bin/../lib/gcc/mips-unknown-linux-uclibc/4.3.4/libgcc.a(_unpack_sf.o)
 .debug_frame   0x00000000000000b0       0x34 /opt/toolchains/buildroot-be-gcc434-2013-0107/usr/bin/../lib/gcc/mips-unknown-linux-uclibc/4.3.4/libgcc.a(_pack_df.o)
 .debug_frame   0x00000000000000e4       0x20 /opt/toolchains/buildroot-be-gcc434-2013-0107/usr/bin/../lib/gcc/mips-unknown-linux-uclibc/4.3.4/libgcc.a(_ashldi3.o)
 .debug_frame   0x0000000000000104       0x20 /opt/toolchains/buildroot-be-gcc434-2013-0107/usr/bin/../lib/gcc/mips-unknown-linux-uclibc/4.3.4/libgcc.a(_ucmpdi2.o)

.debug_str      0x0000000000000000      0x379
 *(.debug_str)
 .debug_str     0x0000000000000000      0x19e /opt/toolchains/buildroot-be-gcc434-2013-0107/usr/bin/../lib/gcc/mips-unknown-linux-uclibc/4.3.4/libgcc.a(_lshrdi3.o)
                                        0x1f2 (size before relaxing)
 .debug_str     0x000000000000019e       0x54 /opt/toolchains/buildroot-be-gcc434-2013-0107/usr/bin/../lib/gcc/mips-unknown-linux-uclibc/4.3.4/libgcc.a(_udivdi3.o)
                                        0x223 (size before relaxing)
 .debug_str     0x00000000000001f2       0xf9 /opt/toolchains/buildroot-be-gcc434-2013-0107/usr/bin/../lib/gcc/mips-unknown-linux-uclibc/4.3.4/libgcc.a(_sf_to_df.o)
                                        0x1f2 (size before relaxing)
 .debug_str     0x00000000000002eb       0x30 /opt/toolchains/buildroot-be-gcc434-2013-0107/usr/bin/../lib/gcc/mips-unknown-linux-uclibc/4.3.4/libgcc.a(_make_df.o)
                                        0x1be (size before relaxing)
 .debug_str     0x0000000000000000      0x1b5 /opt/toolchains/buildroot-be-gcc434-2013-0107/usr/bin/../lib/gcc/mips-unknown-linux-uclibc/4.3.4/libgcc.a(_clz.o)
 .debug_str     0x000000000000031b        0xb /opt/toolchains/buildroot-be-gcc434-2013-0107/usr/bin/../lib/gcc/mips-unknown-linux-uclibc/4.3.4/libgcc.a(_unpack_sf.o)
                                        0x1e2 (size before relaxing)
 .debug_str     0x0000000000000326       0x2f /opt/toolchains/buildroot-be-gcc434-2013-0107/usr/bin/../lib/gcc/mips-unknown-linux-uclibc/4.3.4/libgcc.a(_pack_df.o)
                                        0x206 (size before relaxing)
 .debug_str     0x0000000000000355        0xa /opt/toolchains/buildroot-be-gcc434-2013-0107/usr/bin/../lib/gcc/mips-unknown-linux-uclibc/4.3.4/libgcc.a(_ashldi3.o)
                                        0x1f2 (size before relaxing)
 .debug_str     0x000000000000035f       0x1a /opt/toolchains/buildroot-be-gcc434-2013-0107/usr/bin/../lib/gcc/mips-unknown-linux-uclibc/4.3.4/libgcc.a(_ucmpdi2.o)
                                        0x1e1 (size before relaxing)

.debug_loc      0x0000000000000000      0xac2
 *(.debug_loc)
 .debug_loc     0x0000000000000000       0x86 /opt/toolchains/buildroot-be-gcc434-2013-0107/usr/bin/../lib/gcc/mips-unknown-linux-uclibc/4.3.4/libgcc.a(_lshrdi3.o)
 .debug_loc     0x0000000000000086      0x71b /opt/toolchains/buildroot-be-gcc434-2013-0107/usr/bin/../lib/gcc/mips-unknown-linux-uclibc/4.3.4/libgcc.a(_udivdi3.o)
 .debug_loc     0x00000000000007a1       0x33 /opt/toolchains/buildroot-be-gcc434-2013-0107/usr/bin/../lib/gcc/mips-unknown-linux-uclibc/4.3.4/libgcc.a(_sf_to_df.o)
 .debug_loc     0x00000000000007d4       0x58 /opt/toolchains/buildroot-be-gcc434-2013-0107/usr/bin/../lib/gcc/mips-unknown-linux-uclibc/4.3.4/libgcc.a(_make_df.o)
 .debug_loc     0x000000000000082c       0x31 /opt/toolchains/buildroot-be-gcc434-2013-0107/usr/bin/../lib/gcc/mips-unknown-linux-uclibc/4.3.4/libgcc.a(_unpack_sf.o)
 .debug_loc     0x000000000000085d      0x1d7 /opt/toolchains/buildroot-be-gcc434-2013-0107/usr/bin/../lib/gcc/mips-unknown-linux-uclibc/4.3.4/libgcc.a(_pack_df.o)
 .debug_loc     0x0000000000000a34       0x5e /opt/toolchains/buildroot-be-gcc434-2013-0107/usr/bin/../lib/gcc/mips-unknown-linux-uclibc/4.3.4/libgcc.a(_ashldi3.o)
 .debug_loc     0x0000000000000a92       0x30 /opt/toolchains/buildroot-be-gcc434-2013-0107/usr/bin/../lib/gcc/mips-unknown-linux-uclibc/4.3.4/libgcc.a(_ucmpdi2.o)

.debug_macinfo
 *(.debug_macinfo)

.debug_weaknames
 *(.debug_weaknames)

.debug_funcnames
 *(.debug_funcnames)

.debug_typenames
 *(.debug_typenames)

.debug_varnames
 *(.debug_varnames)

.debug_pubtypes
 *(.debug_pubtypes)

.debug_ranges   0x0000000000000000       0x40
 *(.debug_ranges)
 .debug_ranges  0x0000000000000000       0x40 /opt/toolchains/buildroot-be-gcc434-2013-0107/usr/bin/../lib/gcc/mips-unknown-linux-uclibc/4.3.4/libgcc.a(_udivdi3.o)

.gnu.attributes
                0x0000000000000000       0x10
 *(.gnu.attributes)
 .gnu.attributes
                0x0000000000000000       0x10 /opt/toolchains/buildroot-be-gcc434-2013-0107/usr/bin/../lib/gcc/mips-unknown-linux-uclibc/4.3.4/crtbegin.o
 .gnu.attributes
                0x0000000000000010       0x10 applets/built-in.o
 .gnu.attributes
                0x0000000000000020       0x10 coreutils/lib.a(basename.o)
 .gnu.attributes
                0x0000000000000030       0x10 coreutils/lib.a(cat.o)
 .gnu.attributes
                0x0000000000000040       0x10 coreutils/lib.a(chmod.o)
 .gnu.attributes
                0x0000000000000050       0x10 coreutils/lib.a(cp.o)
 .gnu.attributes
                0x0000000000000060       0x10 coreutils/lib.a(date.o)
 .gnu.attributes
                0x0000000000000070       0x10 coreutils/lib.a(df.o)
 .gnu.attributes
                0x0000000000000080       0x10 coreutils/lib.a(echo.o)
 .gnu.attributes
                0x0000000000000090       0x10 coreutils/lib.a(expr.o)
 .gnu.attributes
                0x00000000000000a0       0x10 coreutils/lib.a(id.o)
 .gnu.attributes
                0x00000000000000b0       0x10 coreutils/lib.a(ln.o)
 .gnu.attributes
                0x00000000000000c0       0x10 coreutils/lib.a(ls.o)
 .gnu.attributes
                0x00000000000000d0       0x10 coreutils/lib.a(md5_sha1_sum.o)
 .gnu.attributes
                0x00000000000000e0       0x10 coreutils/lib.a(mkdir.o)
 .gnu.attributes
                0x00000000000000f0       0x10 coreutils/lib.a(mknod.o)
 .gnu.attributes
                0x0000000000000100       0x10 coreutils/lib.a(mv.o)
 .gnu.attributes
                0x0000000000000110       0x10 coreutils/lib.a(nice.o)
 .gnu.attributes
                0x0000000000000120       0x10 coreutils/lib.a(printf.o)
 .gnu.attributes
                0x0000000000000130       0x10 coreutils/lib.a(pwd.o)
 .gnu.attributes
                0x0000000000000140       0x10 coreutils/lib.a(rm.o)
 .gnu.attributes
                0x0000000000000150       0x10 coreutils/lib.a(sleep.o)
 .gnu.attributes
                0x0000000000000160       0x10 coreutils/lib.a(sort.o)
 .gnu.attributes
                0x0000000000000170       0x10 coreutils/lib.a(stty.o)
 .gnu.attributes
                0x0000000000000180       0x10 coreutils/lib.a(sync.o)
 .gnu.attributes
                0x0000000000000190       0x10 coreutils/lib.a(tail.o)
 .gnu.attributes
                0x00000000000001a0       0x10 coreutils/lib.a(test.o)
 .gnu.attributes
                0x00000000000001b0       0x10 coreutils/lib.a(touch.o)
 .gnu.attributes
                0x00000000000001c0       0x10 coreutils/lib.a(true.o)
 .gnu.attributes
                0x00000000000001d0       0x10 coreutils/lib.a(tty.o)
 .gnu.attributes
                0x00000000000001e0       0x10 coreutils/lib.a(uname.o)
 .gnu.attributes
                0x00000000000001f0       0x10 coreutils/lib.a(wc.o)
 .gnu.attributes
                0x0000000000000200       0x10 coreutils/libcoreutils/lib.a(cp_mv_stat.o)
 .gnu.attributes
                0x0000000000000210       0x10 coreutils/libcoreutils/lib.a(getopt_mk_fifo_nod.o)
 .gnu.attributes
                0x0000000000000220       0x10 debianutils/lib.a(which.o)
 .gnu.attributes
                0x0000000000000230       0x10 editors/lib.a(cmp.o)
 .gnu.attributes
                0x0000000000000240       0x10 editors/lib.a(vi.o)
 .gnu.attributes
                0x0000000000000250       0x10 findutils/lib.a(find.o)
 .gnu.attributes
                0x0000000000000260       0x10 findutils/lib.a(grep.o)
 .gnu.attributes
                0x0000000000000270       0x10 init/lib.a(halt.o)
 .gnu.attributes
                0x0000000000000280       0x10 init/lib.a(init.o)
 .gnu.attributes
                0x0000000000000290       0x10 libbb/lib.a(ask_confirmation.o)
 .gnu.attributes
                0x00000000000002a0       0x10 libbb/lib.a(bb_basename.o)
 .gnu.attributes
                0x00000000000002b0       0x10 libbb/lib.a(bb_pwd.o)
 .gnu.attributes
                0x00000000000002c0       0x10 libbb/lib.a(bb_strtonum.o)
 .gnu.attributes
                0x00000000000002d0       0x10 libbb/lib.a(compare_string_array.o)
 .gnu.attributes
                0x00000000000002e0       0x10 libbb/lib.a(concat_path_file.o)
 .gnu.attributes
                0x00000000000002f0       0x10 libbb/lib.a(copy_file.o)
 .gnu.attributes
                0x0000000000000300       0x10 libbb/lib.a(copyfd.o)
 .gnu.attributes
                0x0000000000000310       0x10 libbb/lib.a(default_error_retval.o)
 .gnu.attributes
                0x0000000000000320       0x10 libbb/lib.a(device_open.o)
 .gnu.attributes
                0x0000000000000330       0x10 libbb/lib.a(error_msg.o)
 .gnu.attributes
                0x0000000000000340       0x10 libbb/lib.a(error_msg_and_die.o)
 .gnu.attributes
                0x0000000000000350       0x10 libbb/lib.a(execable.o)
 .gnu.attributes
                0x0000000000000360       0x10 libbb/lib.a(fclose_nonstdin.o)
 .gnu.attributes
                0x0000000000000370       0x10 libbb/lib.a(fflush_stdout_and_exit.o)
 .gnu.attributes
                0x0000000000000380       0x10 libbb/lib.a(find_mount_point.o)
 .gnu.attributes
                0x0000000000000390       0x10 libbb/lib.a(find_root_device.o)
 .gnu.attributes
                0x00000000000003a0       0x10 libbb/lib.a(full_write.o)
 .gnu.attributes
                0x00000000000003b0       0x10 libbb/lib.a(get_last_path_component.o)
 .gnu.attributes
                0x00000000000003c0       0x10 libbb/lib.a(get_line_from_file.o)
 .gnu.attributes
                0x00000000000003d0       0x10 libbb/lib.a(getopt32.o)
 .gnu.attributes
                0x00000000000003e0       0x10 libbb/lib.a(inode_hash.o)
 .gnu.attributes
                0x00000000000003f0       0x10 libbb/lib.a(isdirectory.o)
 .gnu.attributes
                0x0000000000000400       0x10 libbb/lib.a(last_char_is.o)
 .gnu.attributes
                0x0000000000000410       0x10 libbb/lib.a(llist.o)
 .gnu.attributes
                0x0000000000000420       0x10 libbb/lib.a(make_directory.o)
 .gnu.attributes
                0x0000000000000430       0x10 libbb/lib.a(makedev.o)
 .gnu.attributes
                0x0000000000000440       0x10 libbb/lib.a(md5.o)
 .gnu.attributes
                0x0000000000000450       0x10 libbb/lib.a(messages.o)
 .gnu.attributes
                0x0000000000000460       0x10 libbb/lib.a(mode_string.o)
 .gnu.attributes
                0x0000000000000470       0x10 libbb/lib.a(mtab_file.o)
 .gnu.attributes
                0x0000000000000480       0x10 libbb/lib.a(parse_mode.o)
 .gnu.attributes
                0x0000000000000490       0x10 libbb/lib.a(perror_msg.o)
 .gnu.attributes
                0x00000000000004a0       0x10 libbb/lib.a(perror_msg_and_die.o)
 .gnu.attributes
                0x00000000000004b0       0x10 libbb/lib.a(perror_nomsg_and_die.o)
 .gnu.attributes
                0x00000000000004c0       0x10 libbb/lib.a(process_escape_sequence.o)
 .gnu.attributes
                0x00000000000004d0       0x10 libbb/lib.a(read.o)
 .gnu.attributes
                0x00000000000004e0       0x10 libbb/lib.a(recursive_action.o)
 .gnu.attributes
                0x00000000000004f0       0x10 libbb/lib.a(remove_file.o)
 .gnu.attributes
                0x0000000000000500       0x10 libbb/lib.a(safe_strncpy.o)
 .gnu.attributes
                0x0000000000000510       0x10 libbb/lib.a(safe_write.o)
 .gnu.attributes
                0x0000000000000520       0x10 libbb/lib.a(skip_whitespace.o)
 .gnu.attributes
                0x0000000000000530       0x10 libbb/lib.a(speed_table.o)
 .gnu.attributes
                0x0000000000000540       0x10 libbb/lib.a(verror_msg.o)
 .gnu.attributes
                0x0000000000000550       0x10 libbb/lib.a(vfork_daemon_rexec.o)
 .gnu.attributes
                0x0000000000000560       0x10 libbb/lib.a(warn_ignoring_args.o)
 .gnu.attributes
                0x0000000000000570       0x10 libbb/lib.a(wfopen_input.o)
 .gnu.attributes
                0x0000000000000580       0x10 libbb/lib.a(xatonum.o)
 .gnu.attributes
                0x0000000000000590       0x10 libbb/lib.a(xfuncs.o)
 .gnu.attributes
                0x00000000000005a0       0x10 libbb/lib.a(xgetcwd.o)
 .gnu.attributes
                0x00000000000005b0       0x10 libbb/lib.a(xreadlink.o)
 .gnu.attributes
                0x00000000000005c0       0x10 libbb/lib.a(xregcomp.o)
 .gnu.attributes
                0x00000000000005d0       0x10 libbb/lib.a(concat_subpath_file.o)
 .gnu.attributes
                0x00000000000005e0       0x10 libbb/lib.a(wfopen.o)
 .gnu.attributes
                0x00000000000005f0       0x10 miscutils/lib.a(time.o)
 .gnu.attributes
                0x0000000000000600       0x10 miscutils/lib.a(watchdog.o)
 .gnu.attributes
                0x0000000000000610       0x10 modutils/lib.a(insmod.o)
 .gnu.attributes
                0x0000000000000620       0x10 modutils/lib.a(lsmod.o)
 .gnu.attributes
                0x0000000000000630       0x10 modutils/lib.a(modprobe.o)
 .gnu.attributes
                0x0000000000000640       0x10 modutils/lib.a(rmmod.o)
 .gnu.attributes
                0x0000000000000650       0x10 networking/lib.a(arp.o)
 .gnu.attributes
                0x0000000000000660       0x10 networking/lib.a(ftpgetput.o)
 .gnu.attributes
                0x0000000000000670       0x10 networking/lib.a(ifconfig.o)
 .gnu.attributes
                0x0000000000000680       0x10 networking/lib.a(ifupdown.o)
 .gnu.attributes
                0x0000000000000690       0x10 networking/lib.a(interface.o)
 .gnu.attributes
                0x00000000000006a0       0x10 networking/lib.a(ip.o)
 .gnu.attributes
                0x00000000000006b0       0x10 networking/lib.a(netstat.o)
 .gnu.attributes
                0x00000000000006c0       0x10 networking/lib.a(ping.o)
 .gnu.attributes
                0x00000000000006d0       0x10 networking/lib.a(route.o)
 .gnu.attributes
                0x00000000000006e0       0x10 networking/lib.a(tftp.o)
 .gnu.attributes
                0x00000000000006f0       0x10 networking/lib.a(vconfig.o)
 .gnu.attributes
                0x0000000000000700       0x10 networking/libiproute/lib.a(ip_parse_common_args.o)
 .gnu.attributes
                0x0000000000000710       0x10 networking/libiproute/lib.a(iplink.o)
 .gnu.attributes
                0x0000000000000720       0x10 networking/libiproute/lib.a(ll_addr.o)
 .gnu.attributes
                0x0000000000000730       0x10 networking/libiproute/lib.a(utils.o)
 .gnu.attributes
                0x0000000000000740       0x10 networking/libiproute/lib.a(ipaddress.o)
 .gnu.attributes
                0x0000000000000750       0x10 networking/libiproute/lib.a(libnetlink.o)
 .gnu.attributes
                0x0000000000000760       0x10 networking/libiproute/lib.a(ll_map.o)
 .gnu.attributes
                0x0000000000000770       0x10 networking/libiproute/lib.a(ll_types.o)
 .gnu.attributes
                0x0000000000000780       0x10 networking/libiproute/lib.a(rt_names.o)
 .gnu.attributes
                0x0000000000000790       0x10 procps/lib.a(kill.o)
 .gnu.attributes
                0x00000000000007a0       0x10 procps/lib.a(pidof.o)
 .gnu.attributes
                0x00000000000007b0       0x10 procps/lib.a(ps.o)
 .gnu.attributes
                0x00000000000007c0       0x10 procps/lib.a(sysctl.o)
 .gnu.attributes
                0x00000000000007d0       0x10 procps/lib.a(top.o)
 .gnu.attributes
                0x00000000000007e0       0x10 procps/lib.a(uptime.o)
 .gnu.attributes
                0x00000000000007f0       0x10 shell/lib.a(ash.o)
 .gnu.attributes
                0x0000000000000800       0x10 sysklogd/lib.a(logger.o)
 .gnu.attributes
                0x0000000000000810       0x10 sysklogd/lib.a(syslogd.o)
 .gnu.attributes
                0x0000000000000820       0x10 util-linux/lib.a(dmesg.o)
 .gnu.attributes
                0x0000000000000830       0x10 util-linux/lib.a(hexdump.o)
 .gnu.attributes
                0x0000000000000840       0x10 util-linux/lib.a(ipcs.o)
 .gnu.attributes
                0x0000000000000850       0x10 util-linux/lib.a(mount.o)
 .gnu.attributes
                0x0000000000000860       0x10 util-linux/lib.a(umount.o)
 .gnu.attributes
                0x0000000000000870       0x10 libbb/lib.a(create_icmp6_socket.o)
 .gnu.attributes
                0x0000000000000880       0x10 libbb/lib.a(create_icmp_socket.o)
 .gnu.attributes
                0x0000000000000890       0x10 libbb/lib.a(dump.o)
 .gnu.attributes
                0x00000000000008a0       0x10 libbb/lib.a(find_pid_by_name.o)
 .gnu.attributes
                0x00000000000008b0       0x10 libbb/lib.a(herror_msg_and_die.o)
 .gnu.attributes
                0x00000000000008c0       0x10 libbb/lib.a(inet_common.o)
 .gnu.attributes
                0x00000000000008d0       0x10 libbb/lib.a(lineedit.o)
 .gnu.attributes
                0x00000000000008e0       0x10 libbb/lib.a(loop.o)
 .gnu.attributes
                0x00000000000008f0       0x10 libbb/lib.a(match_fstype.o)
 .gnu.attributes
                0x0000000000000900       0x10 libbb/lib.a(procps.o)
 .gnu.attributes
                0x0000000000000910       0x10 libbb/lib.a(simplify_path.o)
 .gnu.attributes
                0x0000000000000920       0x10 libbb/lib.a(time.o)
 .gnu.attributes
                0x0000000000000930       0x10 libbb/lib.a(trim.o)
 .gnu.attributes
                0x0000000000000940       0x10 libbb/lib.a(u_signal_names.o)
 .gnu.attributes
                0x0000000000000950       0x10 libbb/lib.a(xconnect.o)
 .gnu.attributes
                0x0000000000000960       0x10 /opt/toolchains/buildroot-be-gcc434-2013-0107/usr/bin/../lib/gcc/mips-unknown-linux-uclibc/4.3.4/libgcc.a(_lshrdi3.o)
 .gnu.attributes
                0x0000000000000970       0x10 /opt/toolchains/buildroot-be-gcc434-2013-0107/usr/bin/../lib/gcc/mips-unknown-linux-uclibc/4.3.4/libgcc.a(_udivdi3.o)
 .gnu.attributes
                0x0000000000000980       0x10 /opt/toolchains/buildroot-be-gcc434-2013-0107/usr/bin/../lib/gcc/mips-unknown-linux-uclibc/4.3.4/libgcc.a(_sf_to_df.o)
 .gnu.attributes
                0x0000000000000990       0x10 /opt/toolchains/buildroot-be-gcc434-2013-0107/usr/bin/../lib/gcc/mips-unknown-linux-uclibc/4.3.4/libgcc.a(_make_df.o)
 .gnu.attributes
                0x00000000000009a0       0x10 /opt/toolchains/buildroot-be-gcc434-2013-0107/usr/bin/../lib/gcc/mips-unknown-linux-uclibc/4.3.4/libgcc.a(_clz.o)
 .gnu.attributes
                0x00000000000009b0       0x10 /opt/toolchains/buildroot-be-gcc434-2013-0107/usr/bin/../lib/gcc/mips-unknown-linux-uclibc/4.3.4/libgcc.a(_unpack_sf.o)
 .gnu.attributes
                0x00000000000009c0       0x10 /opt/toolchains/buildroot-be-gcc434-2013-0107/usr/bin/../lib/gcc/mips-unknown-linux-uclibc/4.3.4/libgcc.a(_pack_df.o)
 .gnu.attributes
                0x00000000000009d0       0x10 /opt/toolchains/buildroot-be-gcc434-2013-0107/usr/bin/../lib/gcc/mips-unknown-linux-uclibc/4.3.4/libgcc.a(_ashldi3.o)
 .gnu.attributes
                0x00000000000009e0       0x10 /opt/toolchains/buildroot-be-gcc434-2013-0107/usr/bin/../lib/gcc/mips-unknown-linux-uclibc/4.3.4/libgcc.a(_ucmpdi2.o)
 .gnu.attributes
                0x00000000000009f0       0x10 /opt/toolchains/buildroot-be-gcc434-2013-0107/usr/bin/../lib/gcc/mips-unknown-linux-uclibc/4.3.4/crtend.o

.gptab.sdata
 *(.gptab.data)
 *(.gptab.sdata)

.gptab.sbss
 *(.gptab.bss)
 *(.gptab.sbss)

.mdebug.abi32   0x0000000000000a00        0x0
 *(.mdebug.abi32)
 .mdebug.abi32  0x0000000000000a00        0x0 /opt/buildroot-be-gcc434/usr/lib/crti.o
 .mdebug.abi32  0x0000000000000a00        0x0 /opt/toolchains/buildroot-be-gcc434-2013-0107/usr/bin/../lib/gcc/mips-unknown-linux-uclibc/4.3.4/crtbegin.o
 .mdebug.abi32  0x0000000000000a00        0x0 applets/built-in.o
 .mdebug.abi32  0x0000000000000a00        0x0 coreutils/lib.a(basename.o)
 .mdebug.abi32  0x0000000000000a00        0x0 coreutils/lib.a(cat.o)
 .mdebug.abi32  0x0000000000000a00        0x0 coreutils/lib.a(chmod.o)
 .mdebug.abi32  0x0000000000000a00        0x0 coreutils/lib.a(cp.o)
 .mdebug.abi32  0x0000000000000a00        0x0 coreutils/lib.a(date.o)
 .mdebug.abi32  0x0000000000000a00        0x0 coreutils/lib.a(df.o)
 .mdebug.abi32  0x0000000000000a00        0x0 coreutils/lib.a(echo.o)
 .mdebug.abi32  0x0000000000000a00        0x0 coreutils/lib.a(expr.o)
 .mdebug.abi32  0x0000000000000a00        0x0 coreutils/lib.a(id.o)
 .mdebug.abi32  0x0000000000000a00        0x0 coreutils/lib.a(ln.o)
 .mdebug.abi32  0x0000000000000a00        0x0 coreutils/lib.a(ls.o)
 .mdebug.abi32  0x0000000000000a00        0x0 coreutils/lib.a(md5_sha1_sum.o)
 .mdebug.abi32  0x0000000000000a00        0x0 coreutils/lib.a(mkdir.o)
 .mdebug.abi32  0x0000000000000a00        0x0 coreutils/lib.a(mknod.o)
 .mdebug.abi32  0x0000000000000a00        0x0 coreutils/lib.a(mv.o)
 .mdebug.abi32  0x0000000000000a00        0x0 coreutils/lib.a(nice.o)
 .mdebug.abi32  0x0000000000000a00        0x0 coreutils/lib.a(printf.o)
 .mdebug.abi32  0x0000000000000a00        0x0 coreutils/lib.a(pwd.o)
 .mdebug.abi32  0x0000000000000a00        0x0 coreutils/lib.a(rm.o)
 .mdebug.abi32  0x0000000000000a00        0x0 coreutils/lib.a(sleep.o)
 .mdebug.abi32  0x0000000000000a00        0x0 coreutils/lib.a(sort.o)
 .mdebug.abi32  0x0000000000000a00        0x0 coreutils/lib.a(stty.o)
 .mdebug.abi32  0x0000000000000a00        0x0 coreutils/lib.a(sync.o)
 .mdebug.abi32  0x0000000000000a00        0x0 coreutils/lib.a(tail.o)
 .mdebug.abi32  0x0000000000000a00        0x0 coreutils/lib.a(test.o)
 .mdebug.abi32  0x0000000000000a00        0x0 coreutils/lib.a(touch.o)
 .mdebug.abi32  0x0000000000000a00        0x0 coreutils/lib.a(true.o)
 .mdebug.abi32  0x0000000000000a00        0x0 coreutils/lib.a(tty.o)
 .mdebug.abi32  0x0000000000000a00        0x0 coreutils/lib.a(uname.o)
 .mdebug.abi32  0x0000000000000a00        0x0 coreutils/lib.a(wc.o)
 .mdebug.abi32  0x0000000000000a00        0x0 coreutils/libcoreutils/lib.a(cp_mv_stat.o)
 .mdebug.abi32  0x0000000000000a00        0x0 coreutils/libcoreutils/lib.a(getopt_mk_fifo_nod.o)
 .mdebug.abi32  0x0000000000000a00        0x0 debianutils/lib.a(which.o)
 .mdebug.abi32  0x0000000000000a00        0x0 editors/lib.a(cmp.o)
 .mdebug.abi32  0x0000000000000a00        0x0 editors/lib.a(vi.o)
 .mdebug.abi32  0x0000000000000a00        0x0 findutils/lib.a(find.o)
 .mdebug.abi32  0x0000000000000a00        0x0 findutils/lib.a(grep.o)
 .mdebug.abi32  0x0000000000000a00        0x0 init/lib.a(halt.o)
 .mdebug.abi32  0x0000000000000a00        0x0 init/lib.a(init.o)
 .mdebug.abi32  0x0000000000000a00        0x0 libbb/lib.a(ask_confirmation.o)
 .mdebug.abi32  0x0000000000000a00        0x0 libbb/lib.a(bb_basename.o)
 .mdebug.abi32  0x0000000000000a00        0x0 libbb/lib.a(bb_pwd.o)
 .mdebug.abi32  0x0000000000000a00        0x0 libbb/lib.a(bb_strtonum.o)
 .mdebug.abi32  0x0000000000000a00        0x0 libbb/lib.a(compare_string_array.o)
 .mdebug.abi32  0x0000000000000a00        0x0 libbb/lib.a(concat_path_file.o)
 .mdebug.abi32  0x0000000000000a00        0x0 libbb/lib.a(copy_file.o)
 .mdebug.abi32  0x0000000000000a00        0x0 libbb/lib.a(copyfd.o)
 .mdebug.abi32  0x0000000000000a00        0x0 libbb/lib.a(default_error_retval.o)
 .mdebug.abi32  0x0000000000000a00        0x0 libbb/lib.a(device_open.o)
 .mdebug.abi32  0x0000000000000a00        0x0 libbb/lib.a(error_msg.o)
 .mdebug.abi32  0x0000000000000a00        0x0 libbb/lib.a(error_msg_and_die.o)
 .mdebug.abi32  0x0000000000000a00        0x0 libbb/lib.a(execable.o)
 .mdebug.abi32  0x0000000000000a00        0x0 libbb/lib.a(fclose_nonstdin.o)
 .mdebug.abi32  0x0000000000000a00        0x0 libbb/lib.a(fflush_stdout_and_exit.o)
 .mdebug.abi32  0x0000000000000a00        0x0 libbb/lib.a(find_mount_point.o)
 .mdebug.abi32  0x0000000000000a00        0x0 libbb/lib.a(find_root_device.o)
 .mdebug.abi32  0x0000000000000a00        0x0 libbb/lib.a(full_write.o)
 .mdebug.abi32  0x0000000000000a00        0x0 libbb/lib.a(get_last_path_component.o)
 .mdebug.abi32  0x0000000000000a00        0x0 libbb/lib.a(get_line_from_file.o)
 .mdebug.abi32  0x0000000000000a00        0x0 libbb/lib.a(getopt32.o)
 .mdebug.abi32  0x0000000000000a00        0x0 libbb/lib.a(inode_hash.o)
 .mdebug.abi32  0x0000000000000a00        0x0 libbb/lib.a(isdirectory.o)
 .mdebug.abi32  0x0000000000000a00        0x0 libbb/lib.a(last_char_is.o)
 .mdebug.abi32  0x0000000000000a00        0x0 libbb/lib.a(llist.o)
 .mdebug.abi32  0x0000000000000a00        0x0 libbb/lib.a(make_directory.o)
 .mdebug.abi32  0x0000000000000a00        0x0 libbb/lib.a(makedev.o)
 .mdebug.abi32  0x0000000000000a00        0x0 libbb/lib.a(md5.o)
 .mdebug.abi32  0x0000000000000a00        0x0 libbb/lib.a(messages.o)
 .mdebug.abi32  0x0000000000000a00        0x0 libbb/lib.a(mode_string.o)
 .mdebug.abi32  0x0000000000000a00        0x0 libbb/lib.a(mtab_file.o)
 .mdebug.abi32  0x0000000000000a00        0x0 libbb/lib.a(parse_mode.o)
 .mdebug.abi32  0x0000000000000a00        0x0 libbb/lib.a(perror_msg.o)
 .mdebug.abi32  0x0000000000000a00        0x0 libbb/lib.a(perror_msg_and_die.o)
 .mdebug.abi32  0x0000000000000a00        0x0 libbb/lib.a(perror_nomsg_and_die.o)
 .mdebug.abi32  0x0000000000000a00        0x0 libbb/lib.a(process_escape_sequence.o)
 .mdebug.abi32  0x0000000000000a00        0x0 libbb/lib.a(read.o)
 .mdebug.abi32  0x0000000000000a00        0x0 libbb/lib.a(recursive_action.o)
 .mdebug.abi32  0x0000000000000a00        0x0 libbb/lib.a(remove_file.o)
 .mdebug.abi32  0x0000000000000a00        0x0 libbb/lib.a(safe_strncpy.o)
 .mdebug.abi32  0x0000000000000a00        0x0 libbb/lib.a(safe_write.o)
 .mdebug.abi32  0x0000000000000a00        0x0 libbb/lib.a(skip_whitespace.o)
 .mdebug.abi32  0x0000000000000a00        0x0 libbb/lib.a(speed_table.o)
 .mdebug.abi32  0x0000000000000a00        0x0 libbb/lib.a(verror_msg.o)
 .mdebug.abi32  0x0000000000000a00        0x0 libbb/lib.a(vfork_daemon_rexec.o)
 .mdebug.abi32  0x0000000000000a00        0x0 libbb/lib.a(warn_ignoring_args.o)
 .mdebug.abi32  0x0000000000000a00        0x0 libbb/lib.a(wfopen_input.o)
 .mdebug.abi32  0x0000000000000a00        0x0 libbb/lib.a(xatonum.o)
 .mdebug.abi32  0x0000000000000a00        0x0 libbb/lib.a(xfuncs.o)
 .mdebug.abi32  0x0000000000000a00        0x0 libbb/lib.a(xgetcwd.o)
 .mdebug.abi32  0x0000000000000a00        0x0 libbb/lib.a(xreadlink.o)
 .mdebug.abi32  0x0000000000000a00        0x0 libbb/lib.a(xregcomp.o)
 .mdebug.abi32  0x0000000000000a00        0x0 libbb/lib.a(concat_subpath_file.o)
 .mdebug.abi32  0x0000000000000a00        0x0 libbb/lib.a(wfopen.o)
 .mdebug.abi32  0x0000000000000a00        0x0 miscutils/lib.a(time.o)
 .mdebug.abi32  0x0000000000000a00        0x0 miscutils/lib.a(watchdog.o)
 .mdebug.abi32  0x0000000000000a00        0x0 modutils/lib.a(insmod.o)
 .mdebug.abi32  0x0000000000000a00        0x0 modutils/lib.a(lsmod.o)
 .mdebug.abi32  0x0000000000000a00        0x0 modutils/lib.a(modprobe.o)
 .mdebug.abi32  0x0000000000000a00        0x0 modutils/lib.a(rmmod.o)
 .mdebug.abi32  0x0000000000000a00        0x0 networking/lib.a(arp.o)
 .mdebug.abi32  0x0000000000000a00        0x0 networking/lib.a(ftpgetput.o)
 .mdebug.abi32  0x0000000000000a00        0x0 networking/lib.a(ifconfig.o)
 .mdebug.abi32  0x0000000000000a00        0x0 networking/lib.a(ifupdown.o)
 .mdebug.abi32  0x0000000000000a00        0x0 networking/lib.a(interface.o)
 .mdebug.abi32  0x0000000000000a00        0x0 networking/lib.a(ip.o)
 .mdebug.abi32  0x0000000000000a00        0x0 networking/lib.a(netstat.o)
 .mdebug.abi32  0x0000000000000a00        0x0 networking/lib.a(ping.o)
 .mdebug.abi32  0x0000000000000a00        0x0 networking/lib.a(route.o)
 .mdebug.abi32  0x0000000000000a00        0x0 networking/lib.a(tftp.o)
 .mdebug.abi32  0x0000000000000a00        0x0 networking/lib.a(vconfig.o)
 .mdebug.abi32  0x0000000000000a00        0x0 networking/libiproute/lib.a(ip_parse_common_args.o)
 .mdebug.abi32  0x0000000000000a00        0x0 networking/libiproute/lib.a(iplink.o)
 .mdebug.abi32  0x0000000000000a00        0x0 networking/libiproute/lib.a(ll_addr.o)
 .mdebug.abi32  0x0000000000000a00        0x0 networking/libiproute/lib.a(utils.o)
 .mdebug.abi32  0x0000000000000a00        0x0 networking/libiproute/lib.a(ipaddress.o)
 .mdebug.abi32  0x0000000000000a00        0x0 networking/libiproute/lib.a(libnetlink.o)
 .mdebug.abi32  0x0000000000000a00        0x0 networking/libiproute/lib.a(ll_map.o)
 .mdebug.abi32  0x0000000000000a00        0x0 networking/libiproute/lib.a(ll_types.o)
 .mdebug.abi32  0x0000000000000a00        0x0 networking/libiproute/lib.a(rt_names.o)
 .mdebug.abi32  0x0000000000000a00        0x0 procps/lib.a(kill.o)
 .mdebug.abi32  0x0000000000000a00        0x0 procps/lib.a(pidof.o)
 .mdebug.abi32  0x0000000000000a00        0x0 procps/lib.a(ps.o)
 .mdebug.abi32  0x0000000000000a00        0x0 procps/lib.a(sysctl.o)
 .mdebug.abi32  0x0000000000000a00        0x0 procps/lib.a(top.o)
 .mdebug.abi32  0x0000000000000a00        0x0 procps/lib.a(uptime.o)
 .mdebug.abi32  0x0000000000000a00        0x0 shell/lib.a(ash.o)
 .mdebug.abi32  0x0000000000000a00        0x0 sysklogd/lib.a(logger.o)
 .mdebug.abi32  0x0000000000000a00        0x0 sysklogd/lib.a(syslogd.o)
 .mdebug.abi32  0x0000000000000a00        0x0 util-linux/lib.a(dmesg.o)
 .mdebug.abi32  0x0000000000000a00        0x0 util-linux/lib.a(hexdump.o)
 .mdebug.abi32  0x0000000000000a00        0x0 util-linux/lib.a(ipcs.o)
 .mdebug.abi32  0x0000000000000a00        0x0 util-linux/lib.a(mount.o)
 .mdebug.abi32  0x0000000000000a00        0x0 util-linux/lib.a(umount.o)
 .mdebug.abi32  0x0000000000000a00        0x0 libbb/lib.a(create_icmp6_socket.o)
 .mdebug.abi32  0x0000000000000a00        0x0 libbb/lib.a(create_icmp_socket.o)
 .mdebug.abi32  0x0000000000000a00        0x0 libbb/lib.a(dump.o)
 .mdebug.abi32  0x0000000000000a00        0x0 libbb/lib.a(find_pid_by_name.o)
 .mdebug.abi32  0x0000000000000a00        0x0 libbb/lib.a(herror_msg_and_die.o)
 .mdebug.abi32  0x0000000000000a00        0x0 libbb/lib.a(inet_common.o)
 .mdebug.abi32  0x0000000000000a00        0x0 libbb/lib.a(lineedit.o)
 .mdebug.abi32  0x0000000000000a00        0x0 libbb/lib.a(loop.o)
 .mdebug.abi32  0x0000000000000a00        0x0 libbb/lib.a(match_fstype.o)
 .mdebug.abi32  0x0000000000000a00        0x0 libbb/lib.a(procps.o)
 .mdebug.abi32  0x0000000000000a00        0x0 libbb/lib.a(simplify_path.o)
 .mdebug.abi32  0x0000000000000a00        0x0 libbb/lib.a(time.o)
 .mdebug.abi32  0x0000000000000a00        0x0 libbb/lib.a(trim.o)
 .mdebug.abi32  0x0000000000000a00        0x0 libbb/lib.a(u_signal_names.o)
 .mdebug.abi32  0x0000000000000a00        0x0 libbb/lib.a(xconnect.o)
 .mdebug.abi32  0x0000000000000a00        0x0 /opt/toolchains/buildroot-be-gcc434-2013-0107/usr/bin/../lib/gcc/mips-unknown-linux-uclibc/4.3.4/libgcc.a(_lshrdi3.o)
 .mdebug.abi32  0x0000000000000a00        0x0 /opt/toolchains/buildroot-be-gcc434-2013-0107/usr/bin/../lib/gcc/mips-unknown-linux-uclibc/4.3.4/libgcc.a(_udivdi3.o)
 .mdebug.abi32  0x0000000000000a00        0x0 /opt/toolchains/buildroot-be-gcc434-2013-0107/usr/bin/../lib/gcc/mips-unknown-linux-uclibc/4.3.4/libgcc.a(_sf_to_df.o)
 .mdebug.abi32  0x0000000000000a00        0x0 /opt/toolchains/buildroot-be-gcc434-2013-0107/usr/bin/../lib/gcc/mips-unknown-linux-uclibc/4.3.4/libgcc.a(_make_df.o)
 .mdebug.abi32  0x0000000000000a00        0x0 /opt/toolchains/buildroot-be-gcc434-2013-0107/usr/bin/../lib/gcc/mips-unknown-linux-uclibc/4.3.4/libgcc.a(_clz.o)
 .mdebug.abi32  0x0000000000000a00        0x0 /opt/toolchains/buildroot-be-gcc434-2013-0107/usr/bin/../lib/gcc/mips-unknown-linux-uclibc/4.3.4/libgcc.a(_unpack_sf.o)
 .mdebug.abi32  0x0000000000000a00        0x0 /opt/toolchains/buildroot-be-gcc434-2013-0107/usr/bin/../lib/gcc/mips-unknown-linux-uclibc/4.3.4/libgcc.a(_pack_df.o)
 .mdebug.abi32  0x0000000000000a00        0x0 /opt/toolchains/buildroot-be-gcc434-2013-0107/usr/bin/../lib/gcc/mips-unknown-linux-uclibc/4.3.4/libgcc.a(_ashldi3.o)
 .mdebug.abi32  0x0000000000000a00        0x0 /opt/toolchains/buildroot-be-gcc434-2013-0107/usr/bin/../lib/gcc/mips-unknown-linux-uclibc/4.3.4/libgcc.a(_ucmpdi2.o)
 .mdebug.abi32  0x0000000000000a00        0x0 /opt/toolchains/buildroot-be-gcc434-2013-0107/usr/bin/../lib/gcc/mips-unknown-linux-uclibc/4.3.4/crtend.o
 .mdebug.abi32  0x0000000000000a00        0x0 /opt/buildroot-be-gcc434/usr/lib/crtn.o

.mdebug.abiN32
 *(.mdebug.abiN32)

.mdebug.abi64
 *(.mdebug.abi64)

.mdebug.abiO64
 *(.mdebug.abiO64)

.mdebug.eabi32
 *(.mdebug.eabi32)

.mdebug.eabi64
 *(.mdebug.eabi64)

.gcc_compiled_long32
 *(.gcc_compiled_long32)

.gcc_compiled_long64
 *(.gcc_compiled_long64)

/DISCARD/
 *(.note.GNU-stack)
 *(.gnu_debuglink)
 *(.gnu.lto_*)
OUTPUT(busybox_unstripped elf32-tradbigmips)
